; ModuleID = 'ir/24_0.ll'
source_filename = "/home/users/edoardo.dalessio/code/av_omega/VersalAutomationTemplate/aie/Work/aie/24_0/src/24_0.cc"
target datalayout = "e-i8:8:8-i16:16:16-i32:32:32-i64:32:32-f32:32:32-f64:32:32-p:32:32:32:32:8-s0:256:256-a0:8:8-S256-n32:64-P1-p0:20:32:32:32:8-p1:20:32:32:32:8-p2:20:32:32:32:8-p3:20:32:32:32:8-p4:20:32:32:32:8-p5:20:32:32:32:8-p6:20:32:32:32:8-p7:20:32:32:32:8-p8:20:32:32:32:8-p9:1:32:32:32:32-p10:1:32:32:32:32-p11:1:32:32:32:32-p12:1:32:32:32:32-p13:1:32:32:32:32-p14:1:32:32:32:32-p15:1:32:32:32:32-p16:1:32:32:32:32-p17:1:32:32:32:32-p18:1:32:32:32:32-p19:1:32:32:32:32-p20:1:32:32:32:32-p21:1:32:32:32:32-p22:1:32:32:32:32-p23:1:32:32:32:32-p24:1:32:32:32:32"
target triple = "pdarch-unknown-unknown-elf"

%class.anon = type { i8 }
%struct.input_stream.0 = type { %union.anon.1 }
%union.anon.1 = type { i32 }
%struct.output_stream.2 = type { %union.anon.3 }
%union.anon.3 = type { i32 }
%struct.ipd.custom_type.uint2_t.uint2_t = type { i8 }
%"class.aie::detail::vector" = type { %struct.v4int32 }
%struct.v4int32 = type { %struct.ipd.custom_type.v16int8.v16int8 }
%struct.ipd.custom_type.v16int8.v16int8 = type { i128 }
%"class.aie::detail::vector.1" = type { %"struct.std::__2::array" }
%"struct.std::__2::array" = type { [2 x %struct.v64uint8] }
%struct.v64uint8 = type { %struct.ipd.custom_type.v64int8.v64int8 }
%struct.ipd.custom_type.v64int8.v64int8 = type { i512 }
%"class.aie::detail::vector_elem_ref" = type { %"class.aie::detail::vector.11"*, i32 }
%"class.aie::detail::vector.11" = type { %struct.v32int16 }
%struct.v32int16 = type { %struct.ipd.custom_type.v64int8.v64int8 }
%"class.aie::detail::vector.8" = type { %struct.v64uint8 }
%"class.aie::detail::mask" = type { %"struct.std::__2::array.2" }
%"struct.std::__2::array.2" = type { [4 x i32] }
%"class.aie::detail::vector.14" = type { %"struct.std::__2::array.15" }
%"struct.std::__2::array.15" = type { [2 x %struct.v32int16] }
%"class.std::__2::tuple.32" = type { %"struct.std::__2::__tuple_impl.33" }
%"struct.std::__2::__tuple_impl.33" = type { %"class.std::__2::__tuple_leaf.34", %"class.std::__2::__tuple_leaf.34" }
%"class.std::__2::__tuple_leaf.34" = type { %"class.aie::detail::vector.35" }
%"class.aie::detail::vector.35" = type { %struct.v32uint8 }
%struct.v32uint8 = type { %struct.ipd.custom_type.v32int8.v32int8 }
%struct.ipd.custom_type.v32int8.v32int8 = type { i256 }
%"class.std::__2::tuple" = type { %"struct.std::__2::__tuple_impl" }
%"struct.std::__2::__tuple_impl" = type { %"class.std::__2::__tuple_leaf", %"class.std::__2::__tuple_leaf" }
%"class.std::__2::__tuple_leaf" = type { %"class.aie::detail::vector.11" }
%"struct.std::__2::integer_sequence" = type { i8 }
%struct.ipd.custom_type.uint1_t.uint1_t = type { i8 }
%"struct.std::__2::__tuple_indices" = type { i8 }
%"struct.std::__2::__tuple_types" = type { i8 }
%struct.v64int16 = type { %struct.ipd.custom_type.v128int8.v128int8 }
%struct.ipd.custom_type.v128int8.v128int8 = type { i1024 }
%"class.aie::detail::vector.7" = type { %struct.v8cint32 }
%struct.v8cint32 = type { %struct.ipd.custom_type.v64int8.v64int8 }
%struct.v4cint32 = type { %struct.ipd.custom_type.v32int8.v32int8 }
%"class.aie::detail::mask.30" = type { %"struct.std::__2::array.31" }
%"struct.std::__2::array.31" = type { [2 x i32] }
%"class.aie::detail::vector.19" = type { %struct.v8int32 }
%struct.v8int32 = type { %struct.ipd.custom_type.v32int8.v32int8 }
%"class.aie::detail::vector.20" = type { %"struct.std::__2::array.21" }
%"struct.std::__2::array.21" = type { [2 x %struct.v16int32] }
%struct.v16int32 = type { %struct.ipd.custom_type.v64int8.v64int8 }
%"class.std::__2::tuple.22" = type { %"struct.std::__2::__tuple_impl.23" }
%"struct.std::__2::__tuple_impl.23" = type { %"class.std::__2::__tuple_leaf.24", %"class.std::__2::__tuple_leaf.24", %"class.std::__2::__tuple_leaf.24", %"class.std::__2::__tuple_leaf.24" }
%"class.std::__2::__tuple_leaf.24" = type { %"class.aie::detail::vector.19" }
%"struct.aie::detail::utils::pack2" = type { i8, i8 }
%"class.aie::detail::vector_elem_const_ref" = type { %"class.aie::detail::vector.11"*, i32 }
%struct.v8int16 = type { %struct.ipd.custom_type.v16int8.v16int8 }
%"class.aie::detail::vector.3" = type { %struct.v8int16 }
%"class.aie::detail::vector.6" = type { %struct.v16uint8 }
%struct.v16uint8 = type { %struct.ipd.custom_type.v16int8.v16int8 }
%"class.aie::detail::vector.9" = type { %"struct.std::__2::array.10" }
%"struct.std::__2::array.10" = type { [2 x %struct.v8cint32] }
%"struct.me_primitive::chessout_v4int32_stream_read128___PWSS_rsrc1__sint_uint1_t___sint" = type <{ %struct.v4int32, i32 }>
%"struct.me_primitive::chessout_v4int32_stream_read128___PWSS_rsrc2__sint_uint1_t___sint" = type <{ %struct.v4int32, i32 }>
%"struct.me_primitive::chessout_v4int32_stream_read128___PWSSMEM__sint_uint1_t___sint" = type <{ %struct.v4int32, i32 }>
%struct.output_stream.12 = type { %union.anon.1 }

$_ZN12input_streamIhEC2Ej = comdat any

$_ZN13output_streamIiEC2Ej = comdat any

$_Z4donev = comdat any

$_ZN12me_primitive5eventE7uint2_t = comdat any

$_ZN7uint2_tC2Ei = comdat any

$_ZN3aie6detail6vectorIiLj4EEC2Ev = comdat any

$_ZN3aie6detail6vectorIiLj4EE3setEij = comdat any

$_ZNK3aie6detail6vectorIhLj128EE3getEj = comdat any

$_ZN3aie9broadcastIhLj128EEENS_6detail6vectorINS_17operand_base_typeINS1_5utils10remove_allIT_E4typeEE4typeEXT0_EEES6_ = comdat any

$_ZN3aie6detail4maskILj128EEC2Eb = comdat any

$_ZN3aie5zerosIhLj128EEENS_6detail6vectorIT_XT0_EEEv = comdat any

$_ZN3aie2eqINS_6detail6vectorIhLj128EEES3_EENS1_4maskIXclsrT_4sizeEEEERKS5_RKT0_ = comdat any

$_ZNK3aie6detail4maskILj128EE5countEv = comdat any

$_ZNK3aie6detail4maskILj128EEanERKS2_ = comdat any

$_ZN3aie3addINS_6detail6vectorIhLj128EEES3_EEN22aie_dm_resource_removeIT_E4typeERKS5_RKT0_ = comdat any

$_ZN3aie6detail12add_sub_bitsILj8EhLj128ELNS0_15AddSubOperationE0EE3runERKNS0_6vectorIhLj128EEES7_ = comdat any

$_ZN3aie6detail17add_sub_bits_implILj8EhLj128ELNS0_15AddSubOperationE0EE3runERKNS0_6vectorIhLj128EEES7_ = comdat any

$_ZNK3aie6detail6vectorIhLj128EE7extractILj64EEENS1_IhXT_EEEj = comdat any

$_ZN3aie6detail6vectorIhLj128EEC2Ev = comdat any

$_ZN3aie6detail17add_sub_bits_implILj8EhLj64ELNS0_15AddSubOperationE0EE3runERKNS0_6vectorIhLj64EEES7_ = comdat any

$_ZN3aie6detail6vectorIhLj128EE6insertILj64EEERS2_jRKNS1_IhXT_EEE = comdat any

$_ZNSt3__25arrayI8v64uint8Lj2EEixEj = comdat any

$_ZNK3aie6detail6vectorIhLj64EE6unpackEv = comdat any

$_ZN3aie6detail17add_sub_bits_implILj16EsLj64ELNS0_15AddSubOperationE0EE3runERKNS0_6vectorIsLj64EEES7_ = comdat any

$_ZNK3aie6detail6vectorIsLj64EE4packIhEENS1_IT_Lj64EEEv = comdat any

$_ZN3aie6detail6vectorIhLj64EEC2Ev = comdat any

$_ZNK3aie6detail6vectorIsLj64EE5splitILj32EEEDav = comdat any

$_ZNSt3__23getILj0EJN3aie6detail6vectorIsLj32EEES4_EEEONS_13tuple_elementIXT_ENS_5tupleIJDpT0_EEEE4typeEOS9_ = comdat any

$_ZNSt3__23getILj1EJN3aie6detail6vectorIsLj32EEES4_EEEONS_13tuple_elementIXT_ENS_5tupleIJDpT0_EEEE4typeEOS9_ = comdat any

$_ZNK3aie6detail6vectorIsLj32EE4packIhEENS1_IT_Lj32EEEv = comdat any

$_ZN3aie6detail6vectorIhLj64EE7upd_allIJNS1_IhLj32EEES4_EEERS2_DpOT_ = comdat any

$_ZNSt3__27forwardIN3aie6detail6vectorIhLj32EEEEEOT_RNS_16remove_referenceIS5_E4typeE = comdat any

$_Z6concat8v32uint8S_ = comdat any

$_ZN3aie6detail6vectorIhLj32EEC2Ev = comdat any

$_Z5upack8v32int16 = comdat any

$_ZN7uint1_tC2Ei = comdat any

$_Z12get_sat_implv = comdat any

$_ZN12me_primitive5upackE8v32int167uint1_tS1_ = comdat any

$_ZN3aie6detail14vector_storageIhLj32EE5undefEv = comdat any

$_Z14undef_v32uint8v = comdat any

$_ZNSt3__212__tuple_leafILj1EN3aie6detail6vectorIsLj32EEELb0EE3getEv = comdat any

$_ZNSt3__212__tuple_leafILj0EN3aie6detail6vectorIsLj32EEELb0EE3getEv = comdat any

$_ZNK3aie6detail6vectorIsLj64EE12split_helperILj32EJLj0ELj1EEEEDaONSt3__216integer_sequenceIjJXspT0_EEEE = comdat any

$_ZNK3aie6detail6vectorIsLj64EE7extractILj32EEENS1_IsXT_EEEj = comdat any

$_ZNSt3__210make_tupleIJN3aie6detail6vectorIsLj32EEES4_EEENS_5tupleIJDpNS_18__unwrap_ref_decayIT_E4typeEEEEDpOS7_ = comdat any

$_ZNSt3__27forwardIN3aie6detail6vectorIsLj32EEEEEOT_RNS_16remove_referenceIS5_E4typeE = comdat any

$_ZNSt3__25tupleIJN3aie6detail6vectorIsLj32EEES4_EEC2IJS4_S4_ELb0ELb0EEEDpOT_ = comdat any

$_ZNSt3__212__tuple_implINS_15__tuple_indicesIJLj0ELj1EEEEJN3aie6detail6vectorIsLj32EEES6_EEC2IJLj0ELj1EEJS6_S6_EJEJEJS6_S6_EEENS1_IJXspT_EEEENS_13__tuple_typesIJDpT0_EEENS1_IJXspT1_EEEENSA_IJDpT2_EEEDpOT3_ = comdat any

$_ZNSt3__212__tuple_leafILj0EN3aie6detail6vectorIsLj32EEELb0EEC2IS4_vEEOT_ = comdat any

$_ZNSt3__212__tuple_leafILj1EN3aie6detail6vectorIsLj32EEELb0EEC2IS4_vEEOT_ = comdat any

$_ZN3aie6detail6vectorIsLj32EEC2Ev = comdat any

$_ZNKSt3__25arrayI8v32int16Lj2EEixEj = comdat any

$_ZN3aie6detail6vectorIsLj32EEC2E8v32int16 = comdat any

$_ZN3aie6detail14vector_storageIsLj32EE5undefEv = comdat any

$_Z14undef_v32int16v = comdat any

$_ZN3aie6detail14vector_storageIhLj64EE5undefEv = comdat any

$_Z14undef_v64uint8v = comdat any

$_ZN3aie6detail6vectorIsLj64EEC2Ev = comdat any

$_ZN3aie6detail5utils14is_same_objectINS0_6vectorIsLj64EEES4_EEbRKT_RKT0_ = comdat any

$_ZZN3aie6detail17add_sub_bits_implILj16EsLj64ELNS0_15AddSubOperationE0EE6get_opEvENKUlDpOT_E_clIJNS0_6vectorIsLj32EEEiiiiiiiiEEEDaS6_ = comdat any

$_ZN3aie6detail6vectorIsLj64EE6insertILj32EEERS2_jRKNS1_IsXT_EEE = comdat any

$_ZZN3aie6detail17add_sub_bits_implILj16EsLj64ELNS0_15AddSubOperationE0EE6get_opEvENKUlDpOT_E_clIJNS0_6vectorIsLj32EEESA_EEEDaS6_ = comdat any

$_ZNK3aie6detail6vectorIsLj32EEcv8v32int16Ev = comdat any

$_Z5add328v32int16S_ = comdat any

$_Z6concat8v32int16S_ = comdat any

$_Z5add328v64int16ijjjijjj = comdat any

$_ZNK3aie6detail6vectorIsLj32EE9to_nativeEv = comdat any

$_ZNSt3__25arrayI8v32int16Lj2EEixEj = comdat any

$_Z5add328v32int16ijjjijjj = comdat any

$_ZN3aie6detail14vector_storageIsLj64EE5undefEv = comdat any

$_ZNK3aie6detail6vectorIhLj64EE5splitILj32EEEDav = comdat any

$_ZNSt3__23getILj0EJN3aie6detail6vectorIhLj32EEES4_EEEONS_13tuple_elementIXT_ENS_5tupleIJDpT0_EEEE4typeEOS9_ = comdat any

$_ZNSt3__23getILj1EJN3aie6detail6vectorIhLj32EEES4_EEEONS_13tuple_elementIXT_ENS_5tupleIJDpT0_EEEE4typeEOS9_ = comdat any

$_ZNK3aie6detail6vectorIhLj32EE6unpackEv = comdat any

$_ZN3aie6detail6vectorIsLj64EE7upd_allIJNS1_IsLj32EEES4_EEERS2_DpOT_ = comdat any

$_ZNSt3__23getILj0EJN3aie6detail6vectorIsLj32EEES4_EEERKNS_13tuple_elementIXT_ENS_5tupleIJDpT0_EEEE4typeERKS9_ = comdat any

$_ZNSt3__23getILj1EJN3aie6detail6vectorIsLj32EEES4_EEERKNS_13tuple_elementIXT_ENS_5tupleIJDpT0_EEEE4typeERKS9_ = comdat any

$_ZNKSt3__212__tuple_leafILj1EN3aie6detail6vectorIsLj32EEELb0EE3getEv = comdat any

$_ZNKSt3__212__tuple_leafILj0EN3aie6detail6vectorIsLj32EEELb0EE3getEv = comdat any

$_Z6unpack8v32uint8 = comdat any

$_ZN12me_primitive6unpackE8v32uint87uint1_t = comdat any

$_ZNSt3__212__tuple_leafILj1EN3aie6detail6vectorIhLj32EEELb0EE3getEv = comdat any

$_ZNSt3__212__tuple_leafILj0EN3aie6detail6vectorIhLj32EEELb0EE3getEv = comdat any

$_ZNK3aie6detail6vectorIhLj64EE12split_helperILj32EJLj0ELj1EEEEDaONSt3__216integer_sequenceIjJXspT0_EEEE = comdat any

$_ZNK3aie6detail6vectorIhLj64EE7extractILj32EEENS1_IhXT_EEEj = comdat any

$_ZNSt3__210make_tupleIJN3aie6detail6vectorIhLj32EEES4_EEENS_5tupleIJDpNS_18__unwrap_ref_decayIT_E4typeEEEEDpOS7_ = comdat any

$_ZNSt3__25tupleIJN3aie6detail6vectorIhLj32EEES4_EEC2IJS4_S4_ELb0ELb0EEEDpOT_ = comdat any

$_ZNSt3__212__tuple_implINS_15__tuple_indicesIJLj0ELj1EEEEJN3aie6detail6vectorIhLj32EEES6_EEC2IJLj0ELj1EEJS6_S6_EJEJEJS6_S6_EEENS1_IJXspT_EEEENS_13__tuple_typesIJDpT0_EEENS1_IJXspT1_EEEENSA_IJDpT2_EEEDpOT3_ = comdat any

$_ZNSt3__212__tuple_leafILj0EN3aie6detail6vectorIhLj32EEELb0EEC2IS4_vEEOT_ = comdat any

$_ZNSt3__212__tuple_leafILj1EN3aie6detail6vectorIhLj32EEELb0EEC2IS4_vEEOT_ = comdat any

$_Z5ext_w8v64uint8i = comdat any

$_ZNK3aie6detail6vectorIhLj64EE7cast_toI6cint32EEDav = comdat any

$_ZNK3aie6detail6vectorI6cint32Lj8EEcv8v8cint32Ev = comdat any

$_Z8shuffle88v8cint32ij = comdat any

$_ZN3aie6detail6vectorI6cint32Lj8EEC2E8v8cint32 = comdat any

$_Z5ext_w8v8cint32i = comdat any

$_ZN3aie6detail6vectorIhLj32EEC2E8v32uint8 = comdat any

$_Z11as_v32uint88v4cint32 = comdat any

$_ZN8v32uint8C2E17chessllvmInternal7v32int8 = comdat any

$_ZNK3aie6detail6vectorI6cint32Lj8EE9to_nativeEv = comdat any

$_ZN3aie6detail6vectorI6cint32Lj8EEC2Ev = comdat any

$_Z11as_v8cint328v64uint8 = comdat any

$_ZN8v8cint32C2E17chessllvmInternal7v64int8 = comdat any

$_ZN3aie6detail14vector_storageI6cint32Lj8EE5undefEv = comdat any

$_Z14undef_v8cint32v = comdat any

$_ZN3aie6detail14vector_storageIhLj128EE5undefEv = comdat any

$_ZNKSt3__25arrayI8v64uint8Lj2EEixEj = comdat any

$_ZN3aie6detail6vectorIhLj64EEC2E8v64uint8 = comdat any

$_ZNKSt3__25arrayIjLj4EEixEj = comdat any

$_ZNSt3__25arrayIjLj4EEixEj = comdat any

$_ZN3aie6detail4maskILj128EE10count_wordEj = comdat any

$_ZN3aie6detail5utils14is_same_objectINS0_6vectorIhLj128EEES4_EEbRKT_RKT0_ = comdat any

$_ZN3aie3neqINS_6detail6vectorIhLj128EEES3_EENS1_4maskIXclsrT_4sizeEEEERKS5_RKT0_ = comdat any

$_ZNK3aie6detail4maskILj128EEcoEv = comdat any

$_ZN3aie6detail8cmp_implILNS0_5CmpOpE3EhLj128EE3runERKNS0_6vectorIhLj128EEES7_ = comdat any

$_ZN3aie6detail13cmp_bits_implILNS0_5CmpOpE3ELj8EhLj128EE3runERKNS0_6vectorIhLj128EEES7_ = comdat any

$_ZN3aie6detail8cmp_implILNS0_5CmpOpE3EhLj64EE3runERKNS0_6vectorIhLj64EEES7_ = comdat any

$_ZNK3aie6detail4maskILj64EE4dataEv = comdat any

$_ZNKSt3__25arrayIjLj2EEixEj = comdat any

$_ZN3aie6detail4maskILj128EEC2IJRKjS5_S5_EEEjDpOT_ = comdat any

$_ZNSt3__27forwardIRKjEEOT_RNS_16remove_referenceIS3_E4typeE = comdat any

$_ZN3aie6detail4maskILj128EE15init_from_wordsILj0EJRKjS5_S5_EEEvjDpOT0_ = comdat any

$_ZN3aie6detail4maskILj128EE15init_from_wordsILj1EJRKjS5_EEEvjDpOT0_ = comdat any

$_ZN3aie6detail4maskILj128EE15init_from_wordsILj2EJRKjEEEvjDpOT0_ = comdat any

$_ZN3aie6detail4maskILj128EE15init_from_wordsILj3EJEEEvjDpOT0_ = comdat any

$_ZN3aie6detail13cmp_bits_implILNS0_5CmpOpE3ELj8EhLj64EE3runERKNS0_6vectorIhLj64EEES7_ = comdat any

$_ZN3aie6detail8cmp_implILNS0_5CmpOpE3EsLj64EE3runERKNS0_6vectorIsLj64EEES7_ = comdat any

$_ZN3aie6detail13cmp_bits_implILNS0_5CmpOpE3ELj16EsLj64EE3runERKNS0_6vectorIsLj64EEES7_ = comdat any

$_Z4lt328v64int16ijjjijjj = comdat any

$_ZN3aie6detail4maskILj64EEC2IJRKjEEEjDpOT_ = comdat any

$_ZN3aie6detail4maskILj64EE15init_from_wordsILj0EJRKjEEEvjDpOT0_ = comdat any

$_ZNSt3__25arrayIjLj2EEixEj = comdat any

$_ZN3aie6detail4maskILj64EE15init_from_wordsILj1EJEEEvjDpOT0_ = comdat any

$_ZN3aie6detail5zerosIhLj128EEENS0_6vectorIT_XT0_EEEv = comdat any

$_ZN3aie6detail6vectorIiLj8EEC2E7v8int32 = comdat any

$_ZN3aie6detail13concat_vectorIJRKNS0_6vectorIiLj8EEES5_S5_S5_EEEDaDpOT_ = comdat any

$_ZN3aie6detail11vector_castIhiLj32EEEDaRKNS0_6vectorIT0_XT1_EEE = comdat any

$_ZNK3aie6detail6vectorIiLj32EE7cast_toIhEEDav = comdat any

$_ZNKSt3__25arrayI8v16int32Lj2EEixEj = comdat any

$_Z11as_v64uint88v16int32 = comdat any

$_ZN8v64uint8C2E17chessllvmInternal7v64int8 = comdat any

$_ZNSt3__27forwardIRKN3aie6detail6vectorIiLj8EEEEEOT_RNS_16remove_referenceIS7_E4typeE = comdat any

$_ZN3aie6detail20concat_vector_helperIiLj8EE3runIJRKNS0_6vectorIiLj8EEES7_S7_S7_EEEDaDpOT_ = comdat any

$_ZN3aie6detail6vectorIiLj32EEC2Ev = comdat any

$_ZN3aie6detail6vectorIiLj32EE7upd_allIJRKNS1_IiLj8EEES6_S6_S6_EEERS2_DpOT_ = comdat any

$_ZNSt3__210make_tupleIJRKN3aie6detail6vectorIiLj8EEES6_S6_S6_EEENS_5tupleIJDpNS_18__unwrap_ref_decayIT_E4typeEEEEDpOS9_ = comdat any

$_ZNSt3__25arrayI8v16int32Lj2EEixEj = comdat any

$_ZNSt3__23getILj0EJN3aie6detail6vectorIiLj8EEES4_S4_S4_EEERKNS_13tuple_elementIXT_ENS_5tupleIJDpT0_EEEE4typeERKS9_ = comdat any

$_ZNK3aie6detail6vectorIiLj8EEcv7v8int32Ev = comdat any

$_ZNSt3__23getILj1EJN3aie6detail6vectorIiLj8EEES4_S4_S4_EEERKNS_13tuple_elementIXT_ENS_5tupleIJDpT0_EEEE4typeERKS9_ = comdat any

$_Z6concat7v8int32S_ = comdat any

$_ZNSt3__23getILj2EJN3aie6detail6vectorIiLj8EEES4_S4_S4_EEERKNS_13tuple_elementIXT_ENS_5tupleIJDpT0_EEEE4typeERKS9_ = comdat any

$_ZNSt3__23getILj3EJN3aie6detail6vectorIiLj8EEES4_S4_S4_EEERKNS_13tuple_elementIXT_ENS_5tupleIJDpT0_EEEE4typeERKS9_ = comdat any

$_ZNKSt3__212__tuple_leafILj3EN3aie6detail6vectorIiLj8EEELb0EE3getEv = comdat any

$_ZNKSt3__212__tuple_leafILj2EN3aie6detail6vectorIiLj8EEELb0EE3getEv = comdat any

$_ZNKSt3__212__tuple_leafILj1EN3aie6detail6vectorIiLj8EEELb0EE3getEv = comdat any

$_ZNK3aie6detail6vectorIiLj8EE9to_nativeEv = comdat any

$_ZNKSt3__212__tuple_leafILj0EN3aie6detail6vectorIiLj8EEELb0EE3getEv = comdat any

$_ZNSt3__25tupleIJN3aie6detail6vectorIiLj8EEES4_S4_S4_EEC2ILb1ELb0EEERKS4_S8_S8_S8_ = comdat any

$_ZNSt3__212__tuple_implINS_15__tuple_indicesIJLj0ELj1ELj2ELj3EEEEJN3aie6detail6vectorIiLj8EEES6_S6_S6_EEC2IJLj0ELj1ELj2ELj3EEJS6_S6_S6_S6_EJEJEJRKS6_SA_SA_SA_EEENS1_IJXspT_EEEENS_13__tuple_typesIJDpT0_EEENS1_IJXspT1_EEEENSC_IJDpT2_EEEDpOT3_ = comdat any

$_ZNSt3__212__tuple_leafILj0EN3aie6detail6vectorIiLj8EEELb0EEC2IRKS4_vEEOT_ = comdat any

$_ZNSt3__212__tuple_leafILj1EN3aie6detail6vectorIiLj8EEELb0EEC2IRKS4_vEEOT_ = comdat any

$_ZNSt3__212__tuple_leafILj2EN3aie6detail6vectorIiLj8EEELb0EEC2IRKS4_vEEOT_ = comdat any

$_ZNSt3__212__tuple_leafILj3EN3aie6detail6vectorIiLj8EEELb0EEC2IRKS4_vEEOT_ = comdat any

$_ZN3aie6detail14vector_storageIiLj32EE5undefEv = comdat any

$_Z14undef_v16int32v = comdat any

$_ZN3aie6detail14broadcast_bitsILj8EhLj128EE3runERKh = comdat any

$_ZN3aie6detail19broadcast_bits_implILj8EhLj128EE3runERKh = comdat any

$_ZN3aie6detail5utils5pack2IhEC2Ehh = comdat any

$_ZNK3aie6detail5utils5pack2IhE2asIsEET_v = comdat any

$_ZN3aie6detail19broadcast_bits_implILj16EsLj64EE3runERKs = comdat any

$_ZN3aie6detail11vector_castIhsLj64EEEDaRKNS0_6vectorIT0_XT1_EEE = comdat any

$_ZNK3aie6detail6vectorIsLj64EE7cast_toIhEEDav = comdat any

$_Z11as_v64uint88v32int16 = comdat any

$_ZN3aie6detail19broadcast_bits_implILj16EsLj32EE3runERKs = comdat any

$_ZN3aie6detail13concat_vectorIJRKNS0_6vectorIsLj32EEES5_EEEDaDpOT_ = comdat any

$_ZNSt3__27forwardIRKN3aie6detail6vectorIsLj32EEEEEOT_RNS_16remove_referenceIS7_E4typeE = comdat any

$_ZN3aie6detail20concat_vector_helperIsLj32EE3runIJRKNS0_6vectorIsLj32EEES7_EEEDaDpOT_ = comdat any

$_ZN3aie6detail6vectorIsLj64EE7upd_allIJRKNS1_IsLj32EEES6_EEERS2_DpOT_ = comdat any

$_ZNSt3__210make_tupleIJRKN3aie6detail6vectorIsLj32EEES6_EEENS_5tupleIJDpNS_18__unwrap_ref_decayIT_E4typeEEEEDpOS9_ = comdat any

$_ZNSt3__25tupleIJN3aie6detail6vectorIsLj32EEES4_EEC2ILb1ELb0EEERKS4_S8_ = comdat any

$_ZNSt3__212__tuple_implINS_15__tuple_indicesIJLj0ELj1EEEEJN3aie6detail6vectorIsLj32EEES6_EEC2IJLj0ELj1EEJS6_S6_EJEJEJRKS6_SA_EEENS1_IJXspT_EEEENS_13__tuple_typesIJDpT0_EEENS1_IJXspT1_EEEENSC_IJDpT2_EEEDpOT3_ = comdat any

$_ZNSt3__212__tuple_leafILj0EN3aie6detail6vectorIsLj32EEELb0EEC2IRKS4_vEEOT_ = comdat any

$_ZNSt3__212__tuple_leafILj1EN3aie6detail6vectorIsLj32EEELb0EEC2IRKS4_vEEOT_ = comdat any

$_ZN3aie6detail6vectorIsLj32EEC2IJEEEsDpOT_ = comdat any

$_ZNK3aie6detail6vectorIsLj32EEixEj = comdat any

$_ZN3aie6detail19broadcast_bits_implILj16EsLj32EE3runILj32EEENS0_6vectorIsLj32EEENS0_21vector_elem_const_refIsXT_EEE = comdat any

$_ZNK3aie6detail6vectorIsLj32EE4growILj32EEENS1_IsXT_EEEj = comdat any

$_Z9shuffle328v32int16ijjj = comdat any

$_ZNK3aie6detail6vectorIsLj32EE7extractILj32EEENS1_IsXT_EEEj = comdat any

$_ZNK3aie6detail6vectorIsLj32EE14elem_const_refEj = comdat any

$_ZN3aie6detail21vector_elem_const_refIsLj32EEC2ERKNS0_6vectorIsLj32EEEj = comdat any

$_ZN3aie6detail6vectorIsLj32EE23init_from_values_simpleI8v32int16JEsEEvRT_RKsDpOT0_ = comdat any

$_Z9shft_elem8v32int16i = comdat any

$_ZNK3aie6detail6vectorIiLj4EE7extractILj4EEENS1_IiXT_EEEj = comdat any

$_ZNK3aie6detail6vectorIiLj4EEcv7v4int32Ev = comdat any

$_Z10as_v8int167v4int32 = comdat any

$_Z7put_wmsi7v8int16i = comdat any

$_Z10as_v4int327v8int16 = comdat any

$_Z7put_wmsi7v4int32i = comdat any

$_ZN12me_primitive15stream_write128EPU4AS23U16__protect_accessi7v4int327uint1_tS3_ = comdat any

$_ZN12me_primitive15stream_write128EPU4AS24U16__protect_accessi7v4int327uint1_tS3_ = comdat any

$_ZN12me_primitive15stream_write128EPU4AS12U16__protect_accessi7v4int327uint1_tS3_ = comdat any

$_ZN7v4int32C2E17chessllvmInternal7v16int8 = comdat any

$_ZN7v8int16C2E17chessllvmInternal7v16int8 = comdat any

$_ZNK3aie6detail6vectorIiLj4EE9to_nativeEv = comdat any

$_ZNK3aie6detail6vectorIhLj64EE7cast_toIsEEDav = comdat any

$_ZN3aie6detail6vectorIsLj32EEixEj = comdat any

$_ZNK3aie6detail15vector_elem_refIsLj32EEcvsEv = comdat any

$_ZNK3aie6detail15vector_elem_refIsLj32EE3getEv = comdat any

$_ZNK3aie6detail6vectorIsLj32EE3getEj = comdat any

$_Z8ext_elem8v32int16j = comdat any

$_ZN3aie6detail6vectorIsLj32EE8elem_refEj = comdat any

$_ZN3aie6detail15vector_elem_refIsLj32EEC2ERNS0_6vectorIsLj32EEEj = comdat any

$_Z11as_v32int168v64uint8 = comdat any

$_ZN8v32int16C2E17chessllvmInternal7v64int8 = comdat any

$_ZN3aie6detail6vectorIsLj8EEC2E7v8int16 = comdat any

$_ZN3aie11vector_castIhNS_6detail6vectorIsLj8EEEEEDaRKT0_ = comdat any

$_ZN3aie6detail6vectorIhLj128EE6insertILj16EEERS2_jRKNS1_IhXT_EEE = comdat any

$_ZNK3aie6detail6vectorIhLj16EEcv8v16uint8Ev = comdat any

$_Z5upd_v8v64uint8i8v16uint8 = comdat any

$_ZNK3aie6detail6vectorIhLj16EE4growILj64EEENS1_IhXT_EEEj = comdat any

$_ZNK3aie6detail6vectorIhLj128EE7cast_toI6cint32EEDav = comdat any

$_ZNK3aie6detail6vectorI6cint32Lj16EE7extractILj8EEENS1_IS2_XT_EEEj = comdat any

$_Z7select8j8v8cint32ijS_ij = comdat any

$_ZNK3aie6detail6vectorI6cint32Lj8EE7cast_toIhEEDav = comdat any

$_ZNK3aie6detail6vectorIhLj64EEcv8v64uint8Ev = comdat any

$_ZNK3aie6detail6vectorIhLj64EE9to_nativeEv = comdat any

$_Z11as_v64uint88v8cint32 = comdat any

$_ZNKSt3__25arrayI8v8cint32Lj2EEixEj = comdat any

$_ZN3aie6detail6vectorI6cint32Lj16EEC2Ev = comdat any

$_ZN3aie6detail14vector_storageI6cint32Lj16EE5undefEv = comdat any

$_Z6xset_vi8v16uint8 = comdat any

$_ZNK3aie6detail6vectorIhLj16EE9to_nativeEv = comdat any

$_ZN3aie6detail11vector_castIhsLj8EEEDaRKNS0_6vectorIT0_XT1_EEE = comdat any

$_ZNK3aie6detail6vectorIsLj8EE7cast_toIhEEDav = comdat any

$_ZN3aie6detail6vectorIhLj16EEC2Ev = comdat any

$_Z11as_v16uint87v8int16 = comdat any

$_ZN8v16uint8C2E17chessllvmInternal7v16int8 = comdat any

$_ZN3aie6detail14vector_storageIhLj16EE5undefEv = comdat any

$_Z14undef_v16uint8v = comdat any

$_Z7get_wssi = comdat any

$_Z8getl_wssi = comdat any

$_ZN12me_primitive14stream_read128IiEEN13chessEnableIfIXsr17chessIsCompatibleIN15chessRemoveQualIT_E4typeEiEE5valueE7v4int32E4typeEPU4AS19U16__protect_accessi7uint1_tRS3_ = comdat any

$_ZN12me_primitive14stream_read128IiEEN13chessEnableIfIXsr17chessIsCompatibleIN15chessRemoveQualIT_E4typeEiEE5valueE7v4int32E4typeEPU4AS20U16__protect_accessi7uint1_tRS3_ = comdat any

$_ZN12me_primitive14stream_read128IiEEN13chessEnableIfIXsr17chessIsCompatibleIN15chessRemoveQualIT_E4typeEiEE5valueE7v4int32E4typeEPU4AS11U16__protect_accessi7uint1_tRS3_ = comdat any

$_Z8upd_elem7v4int32ji = comdat any

$_ZN3aie6detail14vector_storageIiLj4EE5undefEv = comdat any

$_Z13undef_v4int32v = comdat any

@_ZL11sync_buffer = internal global [8 x i32] [i32 0, i32 -1, i32 0, i32 0, i32 0, i32 0, i32 0, i32 0], align 16, !dbg !0
@__chess_separator_idummy = external dso_local global i32, align 4
@__const._ZN3aie6detail17add_sub_bits_implILj16EsLj64ELNS0_15AddSubOperationE0EE3runERKNS0_6vectorIsLj64EEES7_.op = private unnamed_addr constant %class.anon undef, align 1
@ZERO = external dso_local constant [8 x i32], align 32
@_ZN12me_primitive3ms0E = external dso_local addrspace(23) global i32, align 1 #0
@_ZN12me_primitive3ms1E = external dso_local addrspace(24) global i32, align 1 #1
@_ZN12me_primitive3ss0E = external dso_local addrspace(19) global i32, align 1 #0
@_ZN12me_primitive5wsst0E = external dso_local addrspace(14) global i32, align 1 #0
@_ZN12me_primitive3ss1E = external dso_local addrspace(20) global i32, align 1 #1
@_ZN12me_primitive5wsst1E = external dso_local addrspace(14) global i32, align 1 #1

; Function Attrs: norecurse nounwind
define dso_local i32 @main() addrspace(1) #2 !dbg !1065 {
entry:
  store volatile i32 0, i32* getelementptr inbounds ([8 x i32], [8 x i32]* @_ZL11sync_buffer, i32 0, i32 0), align 4, !dbg !1075, !tbaa !1076, !noalias !1080
  call addrspace(1) void @llvm.dbg.declare(metadata %struct.input_stream.0* undef, metadata !1067, metadata !DIExpression()), !dbg !1085
  call addrspace(1) void @llvm.dbg.declare(metadata %struct.input_stream.0* undef, metadata !1068, metadata !DIExpression()), !dbg !1086
  call addrspace(1) void @llvm.dbg.declare(metadata %struct.output_stream.2* undef, metadata !1069, metadata !DIExpression()), !dbg !1087
  call addrspace(1) void @llvm.dbg.value(metadata i32 undef, metadata !1070, metadata !DIExpression()), !dbg !1088
  call addrspace(1) void @llvm.dbg.value(metadata i32 1, metadata !1070, metadata !DIExpression()), !dbg !1088
  br label %while.cond, !dbg !1089

while.cond:                                       ; preds = %while.end, %entry
  %index.0 = phi i32 [ 1, %entry ], [ %index.1.lcssa, %while.end ], !dbg !1090
  call addrspace(1) void @llvm.dbg.value(metadata i32 %index.0, metadata !1070, metadata !DIExpression()), !dbg !1088
  call addrspace(1) void @llvm.dbg.value(metadata i32 undef, metadata !1073, metadata !DIExpression()), !dbg !1091
  %0 = load volatile i32, i32* getelementptr inbounds ([8 x i32], [8 x i32]* @_ZL11sync_buffer, i32 0, i32 1), align 4, !dbg !1092, !tbaa !1076, !noalias !1080
  call addrspace(1) void @llvm.dbg.value(metadata i32 %0, metadata !1073, metadata !DIExpression()), !dbg !1091
  call addrspace(1) void @llvm.dbg.value(metadata i32 %index.0, metadata !1070, metadata !DIExpression()), !dbg !1088
  %tobool1 = icmp ne i32 %0, 0, !dbg !1093
  br i1 %tobool1, label %while.body2.preheader, label %while.end, !dbg !1094

while.body2.preheader:                            ; preds = %while.cond
  br label %while.body2, !dbg !1094

while.body2:                                      ; preds = %while.body2.preheader, %while.body2
  %index.13 = phi i32 [ %sub, %while.body2 ], [ %index.0, %while.body2.preheader ]
  %proc_24_0_bounds.02 = phi i32 [ %spec.select, %while.body2 ], [ %0, %while.body2.preheader ]
  call addrspace(1) void @llvm.dbg.value(metadata i32 %index.13, metadata !1070, metadata !DIExpression()), !dbg !1088
  call addrspace(1) void @llvm.dbg.value(metadata i32 %proc_24_0_bounds.02, metadata !1073, metadata !DIExpression()), !dbg !1091
  call addrspace(1) void @_Z18my_kernel_functionP12input_streamIhES1_P13output_streamIiE(i32 undef, i32 undef, i32 undef) #26, !dbg !1095, !noalias !1080
  %sub = sub nsw i32 1, %index.13, !dbg !1097
  call addrspace(1) void @llvm.dbg.value(metadata i32 %sub, metadata !1070, metadata !DIExpression()), !dbg !1088
  call addrspace(1) void @llvm.chess_memory_fence(), !dbg !1098, !noalias !1080
  %cmp = icmp sgt i32 %proc_24_0_bounds.02, 0, !dbg !1099
  %dec = add nsw i32 %proc_24_0_bounds.02, -1
  %spec.select = select i1 %cmp, i32 %dec, i32 %proc_24_0_bounds.02, !dbg !1101
  call addrspace(1) void @llvm.dbg.value(metadata i32 %spec.select, metadata !1073, metadata !DIExpression()), !dbg !1091
  %tobool = icmp ne i32 %spec.select, 0, !dbg !1093
  br i1 %tobool, label %while.body2, label %while.end.loopexit, !dbg !1094, !llvm.loop !1102

while.end.loopexit:                               ; preds = %while.body2
  %sub.lcssa = phi i32 [ %sub, %while.body2 ], !dbg !1097
  br label %while.end, !dbg !1105

while.end:                                        ; preds = %while.end.loopexit, %while.cond
  %index.1.lcssa = phi i32 [ %index.0, %while.cond ], [ %sub.lcssa, %while.end.loopexit ], !dbg !1088
  call addrspace(1) void @_Z4donev() #27, !dbg !1105, !noalias !1080
  %1 = load volatile i32, i32* getelementptr inbounds ([8 x i32], [8 x i32]* @_ZL11sync_buffer, i32 0, i32 0), align 4, !dbg !1106, !tbaa !1076, !noalias !1080
  %cmp3 = icmp sgt i32 %1, 0, !dbg !1108
  br i1 %cmp3, label %while.end6, label %while.cond, !llvm.loop !1109

while.end6:                                       ; preds = %while.end
  ret i32 0, !dbg !1111
}

; Function Attrs: argmemonly nofree nosync nounwind willreturn
declare void @llvm.lifetime.start.p0i8(i64 immarg, i8* nocapture) addrspace(1) #3

; Function Attrs: nofree nosync nounwind readnone speculatable willreturn
declare void @llvm.dbg.declare(metadata, metadata, metadata) addrspace(1) #4

; Function Attrs: inaccessiblememonly nounwind willreturn
declare i8* @llvm.noalias.decl.p0i8.p0s_struct.input_stream.0s.i32(%struct.input_stream.0*, i32, metadata) addrspace(1) #5

; Function Attrs: nounwind
define linkonce_odr dso_local void @_ZN12input_streamIhEC2Ej(%struct.input_stream.0* nonnull dereferenceable(4) %this, i32 %ch) unnamed_addr addrspace(1) #6 comdat align 2 !dbg !1112 {
entry:
  call addrspace(1) void @llvm.dbg.value(metadata %struct.input_stream.0* %this, metadata !1114, metadata !DIExpression()), !dbg !1116
  call addrspace(1) void @llvm.dbg.value(metadata i32 %ch, metadata !1115, metadata !DIExpression()), !dbg !1116
  %0 = getelementptr inbounds %struct.input_stream.0, %struct.input_stream.0* %this, i32 0, i32 0, !dbg !1117
  %channel = bitcast %union.anon.1* %0 to i32*, !dbg !1117
  store i32 %ch, i32* %channel, align 4, !dbg !1117, !tbaa !1118
  ret void, !dbg !1117
}

; Function Attrs: inaccessiblememonly nounwind willreturn
declare i8* @llvm.noalias.decl.p0i8.p0s_struct.output_stream.2s.i32(%struct.output_stream.2*, i32, metadata) addrspace(1) #5

; Function Attrs: nounwind
define linkonce_odr dso_local void @_ZN13output_streamIiEC2Ej(%struct.output_stream.2* nonnull dereferenceable(4) %this, i32 %ch) unnamed_addr addrspace(1) #6 comdat align 2 !dbg !1119 {
entry:
  call addrspace(1) void @llvm.dbg.value(metadata %struct.output_stream.2* %this, metadata !1121, metadata !DIExpression()), !dbg !1123
  call addrspace(1) void @llvm.dbg.value(metadata i32 %ch, metadata !1122, metadata !DIExpression()), !dbg !1123
  %0 = getelementptr inbounds %struct.output_stream.2, %struct.output_stream.2* %this, i32 0, i32 0, !dbg !1124
  %channel = bitcast %union.anon.3* %0 to i32*, !dbg !1124
  store i32 %ch, i32* %channel, align 4, !dbg !1124, !tbaa !1118
  ret void, !dbg !1124
}

; Function Attrs: nounwind willreturn
declare void @llvm.chess_memory_fence() addrspace(1) #7

; Function Attrs: alwaysinline nounwind mustprogress
define linkonce_odr dso_local void @_Z4donev() addrspace(1) #8 comdat {
entry:
  %custom_type.tmp = alloca %struct.ipd.custom_type.uint2_t.uint2_t, align 4
  call addrspace(1) void @llvm.chess_memory_fence()
  call addrspace(1) void @_ZL25chess_separator_scheduleri(i32 8) #26
  call addrspace(1) void @_ZN7uint2_tC2Ei(%struct.ipd.custom_type.uint2_t.uint2_t* nonnull dereferenceable(1) %custom_type.tmp, i32 2) #26
  %0 = load %struct.ipd.custom_type.uint2_t.uint2_t, %struct.ipd.custom_type.uint2_t.uint2_t* %custom_type.tmp, align 4, !tbaa !1125
  call addrspace(1) void @_ZN12me_primitive5eventE7uint2_t(%struct.ipd.custom_type.uint2_t.uint2_t %0) #28
  call addrspace(1) void @_ZL25chess_separator_scheduleri(i32 5) #26
  call addrspace(1) void @llvm.chess_memory_fence()
  ret void
}

; Function Attrs: argmemonly nofree nosync nounwind willreturn
declare void @llvm.lifetime.end.p0i8(i64 immarg, i8* nocapture) addrspace(1) #3

; Function Attrs: alwaysinline nounwind mustprogress
define internal void @_ZL25chess_separator_scheduleri(i32 %i) addrspace(1) #9 {
entry:
  store volatile i32 %i, i32* @__chess_separator_idummy, align 4, !tbaa !1127
  ret void
}

; Function Attrs: alwaysinline nounwind mustprogress
define linkonce_odr dso_local void @_ZN12me_primitive5eventE7uint2_t(%struct.ipd.custom_type.uint2_t.uint2_t %a0.coerce) addrspace(1) #10 comdat {
entry:
  call x86_regcallcc addrspace(1) void @__regcall3__chessintr_void_event_uint2_t(%struct.ipd.custom_type.uint2_t.uint2_t %a0.coerce) #29
  ret void
}

; Function Attrs: alwaysinline nounwind
define linkonce_odr dso_local void @_ZN7uint2_tC2Ei(%struct.ipd.custom_type.uint2_t.uint2_t* nonnull dereferenceable(1) %this, i32 %a) unnamed_addr addrspace(1) #11 comdat align 2 {
entry:
  %0 = bitcast %struct.ipd.custom_type.uint2_t.uint2_t* %this to i8*
  %bf.load = load i8, i8* %0, align 4
  %bf.clear = and i8 %bf.load, -4
  store i8 %bf.clear, i8* %0, align 4
  %1 = call addrspace(1) %struct.ipd.custom_type.uint2_t.uint2_t @llvm.chess.init.customint.s_struct.ipd.custom_type.uint2_t.uint2_ts.i32.p1f_s_struct.ipd.custom_type.uint2_t.uint2_tsi32f(%struct.ipd.custom_type.uint2_t.uint2_t undef, i32 2, i32 2, i32 32, i1 true, i32 0, %struct.ipd.custom_type.uint2_t.uint2_t (i32) addrspace(1)* @__regcall3__chessintr_uint2_t_uint2_t___sint)
  store %struct.ipd.custom_type.uint2_t.uint2_t %1, %struct.ipd.custom_type.uint2_t.uint2_t* %this, align 4
  ret void
}

; Function Attrs: inaccessiblememonly nounwind
declare dso_local x86_regcallcc void @__regcall3__chessintr_void_event_uint2_t(%struct.ipd.custom_type.uint2_t.uint2_t) addrspace(1) #12

; Function Attrs: nounwind readnone willreturn
declare dso_local x86_regcallcc %struct.ipd.custom_type.uint2_t.uint2_t @__regcall3__chessintr_uint2_t_uint2_t___sint(i32 signext) addrspace(1) #13

; Function Attrs: nounwind readnone willreturn
declare %struct.ipd.custom_type.uint2_t.uint2_t @llvm.chess.init.customint.s_struct.ipd.custom_type.uint2_t.uint2_ts.i32.p1f_s_struct.ipd.custom_type.uint2_t.uint2_tsi32f(%struct.ipd.custom_type.uint2_t.uint2_t, i32, i32, i32, i1, i32, %struct.ipd.custom_type.uint2_t.uint2_t (i32) addrspace(1)*) addrspace(1) #14

; Function Attrs: inaccessiblememonly nounwind willreturn
declare i8* @llvm.noalias.decl.p0i8.p0p0s_struct.input_streams.i32(%struct.input_stream.0**, i32, metadata) addrspace(1) #5

; Function Attrs: inaccessiblememonly nounwind willreturn
declare i8* @llvm.noalias.decl.p0i8.p0p0s_struct.input_stream.0s.i32(%struct.input_stream.0**, i32, metadata) addrspace(1) #5

; Function Attrs: inaccessiblememonly nounwind willreturn
declare i8* @llvm.noalias.decl.p0i8.p0p0s_struct.output_streams.i32(%struct.output_stream.2**, i32, metadata) addrspace(1) #5

; Function Attrs: inaccessiblememonly nounwind willreturn
declare i8* @llvm.noalias.decl.p0i8.p0p0s_struct.output_stream.2s.i32(%struct.output_stream.2**, i32, metadata) addrspace(1) #5

; Function Attrs: alwaysinline nounwind
define linkonce_odr dso_local void @_ZN3aie6detail6vectorIiLj4EEC2Ev(%"class.aie::detail::vector"* nonnull dereferenceable(16) %this) unnamed_addr addrspace(1) #11 comdat align 2 !dbg !1130 {
entry:
  call addrspace(1) void @llvm.dbg.value(metadata %"class.aie::detail::vector"* %this, metadata !1132, metadata !DIExpression()), !dbg !1134
  %data = getelementptr inbounds %"class.aie::detail::vector", %"class.aie::detail::vector"* %this, i32 0, i32 0, !dbg !1135
  %call = call addrspace(1) %struct.v4int32 @_ZN3aie6detail14vector_storageIiLj4EE5undefEv() #26, !dbg !1136
  %0 = getelementptr inbounds %struct.v4int32, %struct.v4int32* %data, i32 0, i32 0, !dbg !1136
  %1 = extractvalue %struct.v4int32 %call, 0, !dbg !1136
  store %struct.ipd.custom_type.v16int8.v16int8 %1, %struct.ipd.custom_type.v16int8.v16int8* %0, align 16, !dbg !1136
  ret void, !dbg !1137
}

; Function Attrs: alwaysinline nounwind mustprogress
define linkonce_odr dso_local void @_ZN3aie6detail6vectorIiLj4EE3setEij(%"class.aie::detail::vector"* nonnull dereferenceable(16) %this, i32 %v, i32 %idx) addrspace(1) #9 comdat align 2 !dbg !1138 {
entry:
  %tmp = alloca %struct.v4int32, align 16
  call addrspace(1) void @llvm.dbg.value(metadata %"class.aie::detail::vector"* %this, metadata !1140, metadata !DIExpression()), !dbg !1143
  call addrspace(1) void @llvm.dbg.value(metadata i32 %v, metadata !1141, metadata !DIExpression()), !dbg !1143
  call addrspace(1) void @llvm.dbg.value(metadata i32 %idx, metadata !1142, metadata !DIExpression()), !dbg !1143
  %cmp = icmp ult i32 %idx, 4, !dbg !1144
  %0 = call addrspace(1) i1 @llvm.is.constant.i1(i1 %cmp), !dbg !1144
  br i1 %0, label %do.body, label %if.end4, !dbg !1146

do.body:                                          ; preds = %entry
  %cmp2 = icmp ult i32 %idx, 4, !dbg !1147
  %1 = call addrspace(1) i1 @llvm.chess_manifest(i1 %cmp2), !dbg !1147
  br i1 %1, label %if.end4, label %if.then3, !dbg !1151

if.then3:                                         ; preds = %do.body
  call addrspace(1) void @llvm.chess_error(metadata !1152), !dbg !1147
  unreachable, !dbg !1147

if.end4:                                          ; preds = %do.body, %entry
  %cmp5 = icmp ult i32 %idx, 4, !dbg !1146
  call addrspace(1) void @llvm.assume(i1 %cmp5), !dbg !1146
  %data = getelementptr inbounds %"class.aie::detail::vector", %"class.aie::detail::vector"* %this, i32 0, i32 0, !dbg !1153
  %2 = bitcast %struct.v4int32* %tmp to i8*, !dbg !1158
  call addrspace(1) void @llvm.lifetime.start.p0i8(i64 16, i8* %2) #30, !dbg !1158
  %data6 = getelementptr inbounds %"class.aie::detail::vector", %"class.aie::detail::vector"* %this, i32 0, i32 0, !dbg !1159
  %3 = load %struct.v4int32, %struct.v4int32* %data6, align 16, !dbg !1158, !tbaa !1160
  %call = call addrspace(1) %struct.v4int32 @_Z8upd_elem7v4int32ji(%struct.v4int32 %3, i32 %idx, i32 %v) #26, !dbg !1158
  %4 = getelementptr inbounds %struct.v4int32, %struct.v4int32* %tmp, i32 0, i32 0, !dbg !1158
  %5 = extractvalue %struct.v4int32 %call, 0, !dbg !1158
  store %struct.ipd.custom_type.v16int8.v16int8 %5, %struct.ipd.custom_type.v16int8.v16int8* %4, align 16, !dbg !1158
  %6 = load %struct.v4int32, %struct.v4int32* %tmp, align 16, !dbg !1158, !tbaa !1163
  store %struct.v4int32 %6, %struct.v4int32* %data, align 16, !dbg !1158, !tbaa !1163
  %7 = bitcast %struct.v4int32* %tmp to i8*, !dbg !1158
  call addrspace(1) void @llvm.lifetime.end.p0i8(i64 16, i8* %7) #30, !dbg !1158
  ret void, !dbg !1164
}

; Function Attrs: argmemonly nounwind speculatable willreturn
declare %struct.input_stream.0* @llvm.noalias.p0s_struct.input_streams.p0i8.p0p0s_struct.input_streams.i32(%struct.input_stream.0*, i8*, %struct.input_stream.0**, i32, metadata) addrspace(1) #15

; Function Attrs: argmemonly nounwind speculatable willreturn
declare %struct.input_stream.0* @llvm.noalias.p0s_struct.input_stream.0s.p0i8.p0p0s_struct.input_stream.0s.i32(%struct.input_stream.0*, i8*, %struct.input_stream.0**, i32, metadata) addrspace(1) #15

; Function Attrs: alwaysinline nounwind mustprogress
define linkonce_odr dso_local zeroext i8 @_ZNK3aie6detail6vectorIhLj128EE3getEj(%"class.aie::detail::vector.1"* nonnull dereferenceable(128) %this, i32 %idx) addrspace(1) #9 comdat align 2 !dbg !1165 {
entry:
  %ref.tmp = alloca %"class.aie::detail::vector_elem_ref", align 4
  %ref.tmp6 = alloca %"class.aie::detail::vector.11", align 32
  %ref.tmp7 = alloca %"class.aie::detail::vector.8", align 32
  call addrspace(1) void @llvm.dbg.value(metadata %"class.aie::detail::vector.1"* %this, metadata !1167, metadata !DIExpression()), !dbg !1182
  call addrspace(1) void @llvm.dbg.value(metadata i32 %idx, metadata !1169, metadata !DIExpression()), !dbg !1182
  %cmp = icmp ult i32 %idx, 128, !dbg !1183
  %0 = call addrspace(1) i1 @llvm.is.constant.i1(i1 %cmp), !dbg !1183
  br i1 %0, label %do.body, label %if.end4, !dbg !1185

do.body:                                          ; preds = %entry
  %cmp2 = icmp ult i32 %idx, 128, !dbg !1186
  %1 = call addrspace(1) i1 @llvm.chess_manifest(i1 %cmp2), !dbg !1186
  br i1 %1, label %if.end4, label %if.then3, !dbg !1190

if.then3:                                         ; preds = %do.body
  call addrspace(1) void @llvm.chess_error(metadata !1152), !dbg !1186
  unreachable, !dbg !1186

if.end4:                                          ; preds = %do.body, %entry
  %cmp5 = icmp ult i32 %idx, 128, !dbg !1185
  call addrspace(1) void @llvm.assume(i1 %cmp5), !dbg !1185
  call addrspace(1) void @llvm.dbg.value(metadata i8 undef, metadata !1170, metadata !DIExpression()), !dbg !1191
  %rem = urem i32 %idx, 2, !dbg !1192
  %tobool = icmp ne i32 %rem, 0, !dbg !1193
  %frombool = zext i1 %tobool to i8, !dbg !1194
  call addrspace(1) void @llvm.dbg.value(metadata i8 %frombool, metadata !1170, metadata !DIExpression()), !dbg !1191
  call addrspace(1) void @llvm.dbg.value(metadata i16 undef, metadata !1177, metadata !DIExpression()), !dbg !1191
  %2 = bitcast %"class.aie::detail::vector_elem_ref"* %ref.tmp to i8*, !dbg !1195
  call addrspace(1) void @llvm.lifetime.start.p0i8(i64 8, i8* %2) #30, !dbg !1195
  %3 = bitcast %"class.aie::detail::vector.11"* %ref.tmp6 to i8*, !dbg !1195
  call addrspace(1) void @llvm.lifetime.start.p0i8(i64 64, i8* %3) #30, !dbg !1195
  %4 = bitcast %"class.aie::detail::vector.8"* %ref.tmp7 to i8*, !dbg !1195
  call addrspace(1) void @llvm.lifetime.start.p0i8(i64 64, i8* %4) #30, !dbg !1195
  %div = udiv i32 %idx, 64, !dbg !1196
  %call = call addrspace(1) %"class.aie::detail::vector.8" @_ZNK3aie6detail6vectorIhLj128EE7extractILj64EEENS1_IhXT_EEEj(%"class.aie::detail::vector.1"* nonnull dereferenceable(128) %this, i32 %div) #26, !dbg !1197
  %5 = getelementptr inbounds %"class.aie::detail::vector.8", %"class.aie::detail::vector.8"* %ref.tmp7, i32 0, i32 0, !dbg !1197
  %6 = extractvalue %"class.aie::detail::vector.8" %call, 0, !dbg !1197
  store %struct.v64uint8 %6, %struct.v64uint8* %5, align 32, !dbg !1197
  %call8 = call addrspace(1) %"class.aie::detail::vector.11" @_ZNK3aie6detail6vectorIhLj64EE7cast_toIsEEDav(%"class.aie::detail::vector.8"* nonnull dereferenceable(64) %ref.tmp7) #26, !dbg !1198
  %7 = getelementptr inbounds %"class.aie::detail::vector.11", %"class.aie::detail::vector.11"* %ref.tmp6, i32 0, i32 0, !dbg !1198
  %8 = extractvalue %"class.aie::detail::vector.11" %call8, 0, !dbg !1198
  store %struct.v32int16 %8, %struct.v32int16* %7, align 32, !dbg !1198
  %rem9 = urem i32 %idx, 64, !dbg !1199
  %div10 = udiv i32 %rem9, 2, !dbg !1200
  %call11 = call addrspace(1) %"class.aie::detail::vector_elem_ref" @_ZN3aie6detail6vectorIsLj32EEixEj(%"class.aie::detail::vector.11"* nonnull dereferenceable(64) %ref.tmp6, i32 %div10) #26, !dbg !1195
  %9 = getelementptr inbounds %"class.aie::detail::vector_elem_ref", %"class.aie::detail::vector_elem_ref"* %ref.tmp, i32 0, i32 0, !dbg !1195
  %10 = extractvalue %"class.aie::detail::vector_elem_ref" %call11, 0, !dbg !1195
  store %"class.aie::detail::vector.11"* %10, %"class.aie::detail::vector.11"** %9, align 4, !dbg !1195
  %11 = getelementptr inbounds %"class.aie::detail::vector_elem_ref", %"class.aie::detail::vector_elem_ref"* %ref.tmp, i32 0, i32 1, !dbg !1195
  %12 = extractvalue %"class.aie::detail::vector_elem_ref" %call11, 1, !dbg !1195
  store i32 %12, i32* %11, align 4, !dbg !1195
  %call12 = call signext addrspace(1) i16 @_ZNK3aie6detail15vector_elem_refIsLj32EEcvsEv(%"class.aie::detail::vector_elem_ref"* nonnull dereferenceable(8) %ref.tmp) #26, !dbg !1195
  %13 = bitcast %"class.aie::detail::vector.8"* %ref.tmp7 to i8*, !dbg !1195
  call addrspace(1) void @llvm.lifetime.end.p0i8(i64 64, i8* %13) #30, !dbg !1195
  %14 = bitcast %"class.aie::detail::vector.11"* %ref.tmp6 to i8*, !dbg !1195
  call addrspace(1) void @llvm.lifetime.end.p0i8(i64 64, i8* %14) #30, !dbg !1195
  %15 = bitcast %"class.aie::detail::vector_elem_ref"* %ref.tmp to i8*, !dbg !1195
  call addrspace(1) void @llvm.lifetime.end.p0i8(i64 8, i8* %15) #30, !dbg !1195
  call addrspace(1) void @llvm.dbg.value(metadata i16 %call12, metadata !1177, metadata !DIExpression()), !dbg !1191
  call addrspace(1) void @llvm.dbg.value(metadata i8 undef, metadata !1181, metadata !DIExpression()), !dbg !1191
  %tobool13 = trunc i8 %frombool to i1, !dbg !1201
  br i1 %tobool13, label %if.then14, label %if.else, !dbg !1203

if.then14:                                        ; preds = %if.end4
  %conv = sext i16 %call12 to i32, !dbg !1204
  %shr = ashr i32 %conv, 8, !dbg !1205
  %conv15 = trunc i32 %shr to i8, !dbg !1204
  call addrspace(1) void @llvm.dbg.value(metadata i8 %conv15, metadata !1181, metadata !DIExpression()), !dbg !1191
  br label %if.end18, !dbg !1206

if.else:                                          ; preds = %if.end4
  %conv16 = sext i16 %call12 to i32, !dbg !1207
  %and = and i32 255, %conv16, !dbg !1208
  %conv17 = trunc i32 %and to i8, !dbg !1209
  call addrspace(1) void @llvm.dbg.value(metadata i8 %conv17, metadata !1181, metadata !DIExpression()), !dbg !1191
  br label %if.end18

if.end18:                                         ; preds = %if.else, %if.then14
  %ret.0 = phi i8 [ %conv15, %if.then14 ], [ %conv17, %if.else ], !dbg !1210
  call addrspace(1) void @llvm.dbg.value(metadata i8 %ret.0, metadata !1181, metadata !DIExpression()), !dbg !1191
  ret i8 %ret.0, !dbg !1211
}

; Function Attrs: argmemonly nounwind speculatable willreturn
declare %struct.output_stream.2* @llvm.noalias.p0s_struct.output_streams.p0i8.p0p0s_struct.output_streams.i32(%struct.output_stream.2*, i8*, %struct.output_stream.2**, i32, metadata) addrspace(1) #15

; Function Attrs: argmemonly nounwind speculatable willreturn
declare %struct.output_stream.2* @llvm.noalias.p0s_struct.output_stream.2s.p0i8.p0p0s_struct.output_stream.2s.i32(%struct.output_stream.2*, i8*, %struct.output_stream.2**, i32, metadata) addrspace(1) #15

; Function Attrs: alwaysinline nounwind mustprogress
define linkonce_odr dso_local void @_ZN3aie9broadcastIhLj128EEENS_6detail6vectorINS_17operand_base_typeINS1_5utils10remove_allIT_E4typeEE4typeEXT0_EEES6_(%"class.aie::detail::vector.1"* noalias sret(%"class.aie::detail::vector.1") align 32 %agg.result, i8 zeroext %a) addrspace(1) #9 comdat !dbg !1212 {
entry:
  %a.addr = alloca i8, align 1
  store i8 %a, i8* %a.addr, align 1, !tbaa !1220
  call addrspace(1) void @llvm.dbg.declare(metadata i8* %a.addr, metadata !1217, metadata !DIExpression()), !dbg !1221
  call addrspace(1) void @_ZN3aie6detail14broadcast_bitsILj8EhLj128EE3runERKh(%"class.aie::detail::vector.1"* sret(%"class.aie::detail::vector.1") align 32 %agg.result, i8* nonnull align 1 dereferenceable(1) %a.addr) #26, !dbg !1222
  ret void, !dbg !1224
}

; Function Attrs: alwaysinline nounwind
define linkonce_odr dso_local void @_ZN3aie6detail4maskILj128EEC2Eb(%"class.aie::detail::mask"* nonnull dereferenceable(16) %this, i1 zeroext %initial_set) unnamed_addr addrspace(1) #11 comdat align 2 !dbg !1225 {
entry:
  call addrspace(1) void @llvm.dbg.value(metadata %"class.aie::detail::mask"* %this, metadata !1227, metadata !DIExpression()), !dbg !1238
  %frombool = zext i1 %initial_set to i8
  call addrspace(1) void @llvm.dbg.value(metadata i8 %frombool, metadata !1229, metadata !DIExpression()), !dbg !1238
  %data_ = getelementptr inbounds %"class.aie::detail::mask", %"class.aie::detail::mask"* %this, i32 0, i32 0, !dbg !1239
  %0 = bitcast %"struct.std::__2::array.2"* %data_ to i8*, !dbg !1239
  call addrspace(1) void @llvm.memset.p0i8.i32(i8* align 4 %0, i8 0, i32 16, i1 false), !dbg !1239
  %tobool = trunc i8 %frombool to i1, !dbg !1240
  br i1 %tobool, label %for.body.preheader, label %for.body9.preheader, !dbg !1241

for.body9.preheader:                              ; preds = %entry
  br label %for.body9, !dbg !1242

for.body.preheader:                               ; preds = %entry
  br label %for.body, !dbg !1243

for.body:                                         ; preds = %for.body.preheader, %for.body
  %i.02 = phi i32 [ %inc, %for.body ], [ 0, %for.body.preheader ]
  call addrspace(1) void @llvm.dbg.value(metadata i32 %i.02, metadata !1230, metadata !DIExpression()), !dbg !1244
  %data_2 = getelementptr inbounds %"class.aie::detail::mask", %"class.aie::detail::mask"* %this, i32 0, i32 0, !dbg !1245
  %call = call nonnull align 4 dereferenceable(4) addrspace(1) i32* @_ZNSt3__25arrayIjLj4EEixEj(%"struct.std::__2::array.2"* nonnull dereferenceable(16) %data_2, i32 %i.02) #31, !dbg !1245
  store i32 -1, i32* %call, align 4, !dbg !1247, !tbaa !1076
  %inc = add nuw nsw i32 %i.02, 1, !dbg !1248
  call addrspace(1) void @llvm.dbg.value(metadata i32 %inc, metadata !1230, metadata !DIExpression()), !dbg !1244
  %exitcond3 = icmp ne i32 %inc, 3, !dbg !1249
  br i1 %exitcond3, label %for.body, label %for.end, !dbg !1243, !llvm.loop !1250

for.end:                                          ; preds = %for.body
  %data_3 = getelementptr inbounds %"class.aie::detail::mask", %"class.aie::detail::mask"* %this, i32 0, i32 0, !dbg !1256
  %call4 = call nonnull align 4 dereferenceable(4) addrspace(1) i32* @_ZNSt3__25arrayIjLj4EEixEj(%"struct.std::__2::array.2"* nonnull dereferenceable(16) %data_3, i32 3) #31, !dbg !1256
  store i32 -1, i32* %call4, align 4, !dbg !1257, !tbaa !1076
  br label %if.end, !dbg !1258

for.body9:                                        ; preds = %for.body9.preheader, %for.body9
  %i5.01 = phi i32 [ %inc13, %for.body9 ], [ 0, %for.body9.preheader ]
  call addrspace(1) void @llvm.dbg.value(metadata i32 %i5.01, metadata !1235, metadata !DIExpression()), !dbg !1259
  %data_10 = getelementptr inbounds %"class.aie::detail::mask", %"class.aie::detail::mask"* %this, i32 0, i32 0, !dbg !1260
  %call11 = call nonnull align 4 dereferenceable(4) addrspace(1) i32* @_ZNSt3__25arrayIjLj4EEixEj(%"struct.std::__2::array.2"* nonnull dereferenceable(16) %data_10, i32 %i5.01) #31, !dbg !1260
  store i32 0, i32* %call11, align 4, !dbg !1262, !tbaa !1076
  %inc13 = add nuw nsw i32 %i5.01, 1, !dbg !1263
  call addrspace(1) void @llvm.dbg.value(metadata i32 %inc13, metadata !1235, metadata !DIExpression()), !dbg !1259
  %exitcond = icmp ne i32 %inc13, 4, !dbg !1264
  br i1 %exitcond, label %for.body9, label %if.end.loopexit, !dbg !1242, !llvm.loop !1265

if.end.loopexit:                                  ; preds = %for.body9
  br label %if.end, !dbg !1269

if.end:                                           ; preds = %if.end.loopexit, %for.end
  ret void, !dbg !1269
}

; Function Attrs: alwaysinline nounwind mustprogress
define linkonce_odr dso_local void @_ZN3aie5zerosIhLj128EEENS_6detail6vectorIT_XT0_EEEv(%"class.aie::detail::vector.1"* noalias sret(%"class.aie::detail::vector.1") align 32 %agg.result) addrspace(1) #9 comdat !dbg !1270 {
entry:
  call addrspace(1) void @_ZN3aie6detail5zerosIhLj128EEENS0_6vectorIT_XT0_EEEv(%"class.aie::detail::vector.1"* sret(%"class.aie::detail::vector.1") align 32 %agg.result) #26, !dbg !1273
  ret void, !dbg !1274
}

; Function Attrs: alwaysinline nounwind mustprogress
define linkonce_odr dso_local %"class.aie::detail::mask" @_ZN3aie2eqINS_6detail6vectorIhLj128EEES3_EENS1_4maskIXclsrT_4sizeEEEERKS5_RKT0_(%"class.aie::detail::vector.1"* nonnull align 32 dereferenceable(128) %v1, %"class.aie::detail::vector.1"* nonnull align 32 dereferenceable(128) %v2) addrspace(1) #9 comdat !dbg !1275 {
entry:
  %retval = alloca %"class.aie::detail::mask", align 4
  %ref.tmp = alloca %"class.aie::detail::mask", align 4
  call addrspace(1) void @llvm.dbg.value(metadata %"class.aie::detail::vector.1"* %v1, metadata !1280, metadata !DIExpression()), !dbg !1285
  call addrspace(1) void @llvm.dbg.value(metadata %"class.aie::detail::vector.1"* %v2, metadata !1281, metadata !DIExpression()), !dbg !1285
  %call = call zeroext addrspace(1) i1 @_ZN3aie6detail5utils14is_same_objectINS0_6vectorIhLj128EEES4_EEbRKT_RKT0_(%"class.aie::detail::vector.1"* nonnull align 32 dereferenceable(128) %v1, %"class.aie::detail::vector.1"* nonnull align 32 dereferenceable(128) %v2) #32, !dbg !1286
  %0 = call addrspace(1) i1 @llvm.chess_manifest(i1 %call), !dbg !1286
  br i1 %0, label %if.then, label %if.end, !dbg !1288

if.then:                                          ; preds = %entry
  call addrspace(1) void @_ZN3aie6detail4maskILj128EEC2Eb(%"class.aie::detail::mask"* nonnull dereferenceable(16) %retval, i1 zeroext true) #26, !dbg !1289
  br label %return, !dbg !1290

if.end:                                           ; preds = %entry
  %1 = bitcast %"class.aie::detail::mask"* %ref.tmp to i8*, !dbg !1291
  call addrspace(1) void @llvm.lifetime.start.p0i8(i64 16, i8* %1) #30, !dbg !1291
  %call1 = call addrspace(1) %"class.aie::detail::mask" @_ZN3aie3neqINS_6detail6vectorIhLj128EEES3_EENS1_4maskIXclsrT_4sizeEEEERKS5_RKT0_(%"class.aie::detail::vector.1"* nonnull align 32 dereferenceable(128) %v1, %"class.aie::detail::vector.1"* nonnull align 32 dereferenceable(128) %v2) #26, !dbg !1291
  %2 = getelementptr inbounds %"class.aie::detail::mask", %"class.aie::detail::mask"* %ref.tmp, i32 0, i32 0, !dbg !1291
  %3 = extractvalue %"class.aie::detail::mask" %call1, 0, !dbg !1291
  store %"struct.std::__2::array.2" %3, %"struct.std::__2::array.2"* %2, align 4, !dbg !1291
  %call2 = call addrspace(1) %"class.aie::detail::mask" @_ZNK3aie6detail4maskILj128EEcoEv(%"class.aie::detail::mask"* nonnull dereferenceable(16) %ref.tmp) #26, !dbg !1292
  %4 = getelementptr inbounds %"class.aie::detail::mask", %"class.aie::detail::mask"* %retval, i32 0, i32 0, !dbg !1292
  %5 = extractvalue %"class.aie::detail::mask" %call2, 0, !dbg !1292
  store %"struct.std::__2::array.2" %5, %"struct.std::__2::array.2"* %4, align 4, !dbg !1292
  %6 = bitcast %"class.aie::detail::mask"* %ref.tmp to i8*, !dbg !1293
  call addrspace(1) void @llvm.lifetime.end.p0i8(i64 16, i8* %6) #30, !dbg !1293
  br label %return, !dbg !1293

return:                                           ; preds = %if.end, %if.then
  %7 = load %"class.aie::detail::mask", %"class.aie::detail::mask"* %retval, align 4, !dbg !1294
  ret %"class.aie::detail::mask" %7, !dbg !1294
}

; Function Attrs: alwaysinline nounwind mustprogress
define linkonce_odr dso_local i32 @_ZNK3aie6detail4maskILj128EE5countEv(%"class.aie::detail::mask"* nonnull dereferenceable(16) %this) addrspace(1) #9 comdat align 2 !dbg !1295 {
entry:
  call addrspace(1) void @llvm.dbg.value(metadata %"class.aie::detail::mask"* %this, metadata !1297, metadata !DIExpression()), !dbg !1302
  call addrspace(1) void @llvm.dbg.value(metadata i32 undef, metadata !1299, metadata !DIExpression()), !dbg !1302
  call addrspace(1) void @llvm.dbg.value(metadata i32 0, metadata !1299, metadata !DIExpression()), !dbg !1302
  call addrspace(1) void @llvm.dbg.value(metadata i32 undef, metadata !1300, metadata !DIExpression()), !dbg !1303
  call addrspace(1) void @llvm.dbg.value(metadata i32 0, metadata !1300, metadata !DIExpression()), !dbg !1303
  br label %for.body, !dbg !1304

for.body:                                         ; preds = %for.body, %entry
  %i.02 = phi i32 [ 0, %entry ], [ %inc, %for.body ]
  %count.01 = phi i32 [ 0, %entry ], [ %add, %for.body ]
  call addrspace(1) void @llvm.dbg.value(metadata i32 %i.02, metadata !1300, metadata !DIExpression()), !dbg !1303
  call addrspace(1) void @llvm.dbg.value(metadata i32 %count.01, metadata !1299, metadata !DIExpression()), !dbg !1302
  %data_ = getelementptr inbounds %"class.aie::detail::mask", %"class.aie::detail::mask"* %this, i32 0, i32 0, !dbg !1305
  %call = call nonnull align 4 dereferenceable(4) addrspace(1) i32* @_ZNKSt3__25arrayIjLj4EEixEj(%"struct.std::__2::array.2"* nonnull dereferenceable(16) %data_, i32 %i.02) #31, !dbg !1305
  %0 = load i32, i32* %call, align 4, !dbg !1305, !tbaa !1076
  %call2 = call addrspace(1) i32 @_ZN3aie6detail4maskILj128EE10count_wordEj(i32 %0) #26, !dbg !1307
  %add = add i32 %count.01, %call2, !dbg !1308
  call addrspace(1) void @llvm.dbg.value(metadata i32 %add, metadata !1299, metadata !DIExpression()), !dbg !1302
  %inc = add nuw nsw i32 %i.02, 1, !dbg !1309
  call addrspace(1) void @llvm.dbg.value(metadata i32 %inc, metadata !1300, metadata !DIExpression()), !dbg !1303
  %exitcond = icmp ne i32 %inc, 4, !dbg !1310
  br i1 %exitcond, label %for.body, label %for.end, !dbg !1304, !llvm.loop !1311

for.end:                                          ; preds = %for.body
  %count.0.lcssa = phi i32 [ %add, %for.body ], !dbg !1302
  ret i32 %count.0.lcssa, !dbg !1313
}

; Function Attrs: alwaysinline nounwind mustprogress
define linkonce_odr dso_local %"class.aie::detail::mask" @_ZNK3aie6detail4maskILj128EEanERKS2_(%"class.aie::detail::mask"* nonnull dereferenceable(16) %this, %"class.aie::detail::mask"* nonnull align 4 dereferenceable(16) %a) addrspace(1) #9 comdat align 2 !dbg !1314 {
entry:
  %retval = alloca %"class.aie::detail::mask", align 4
  call addrspace(1) void @llvm.dbg.value(metadata %"class.aie::detail::mask"* %this, metadata !1316, metadata !DIExpression()), !dbg !1321
  call addrspace(1) void @llvm.dbg.value(metadata %"class.aie::detail::mask"* %a, metadata !1317, metadata !DIExpression()), !dbg !1321
  call addrspace(1) void @llvm.dbg.declare(metadata %"class.aie::detail::mask"* %retval, metadata !1318, metadata !DIExpression()), !dbg !1322
  call addrspace(1) void @_ZN3aie6detail4maskILj128EEC2Eb(%"class.aie::detail::mask"* nonnull dereferenceable(16) %retval, i1 zeroext false) #26, !dbg !1322
  call addrspace(1) void @llvm.dbg.value(metadata i32 undef, metadata !1319, metadata !DIExpression()), !dbg !1323
  call addrspace(1) void @llvm.dbg.value(metadata i32 0, metadata !1319, metadata !DIExpression()), !dbg !1323
  br label %for.body, !dbg !1324

for.body:                                         ; preds = %for.body, %entry
  %i.01 = phi i32 [ 0, %entry ], [ %inc, %for.body ]
  call addrspace(1) void @llvm.dbg.value(metadata i32 %i.01, metadata !1319, metadata !DIExpression()), !dbg !1323
  %data_ = getelementptr inbounds %"class.aie::detail::mask", %"class.aie::detail::mask"* %this, i32 0, i32 0, !dbg !1325
  %call = call nonnull align 4 dereferenceable(4) addrspace(1) i32* @_ZNKSt3__25arrayIjLj4EEixEj(%"struct.std::__2::array.2"* nonnull dereferenceable(16) %data_, i32 %i.01) #31, !dbg !1325
  %0 = load i32, i32* %call, align 4, !dbg !1325, !tbaa !1076
  %data_2 = getelementptr inbounds %"class.aie::detail::mask", %"class.aie::detail::mask"* %a, i32 0, i32 0, !dbg !1327
  %call3 = call nonnull align 4 dereferenceable(4) addrspace(1) i32* @_ZNKSt3__25arrayIjLj4EEixEj(%"struct.std::__2::array.2"* nonnull dereferenceable(16) %data_2, i32 %i.01) #31, !dbg !1328
  %1 = load i32, i32* %call3, align 4, !dbg !1328, !tbaa !1076
  %and = and i32 %0, %1, !dbg !1329
  %data_4 = getelementptr inbounds %"class.aie::detail::mask", %"class.aie::detail::mask"* %retval, i32 0, i32 0, !dbg !1330
  %call5 = call nonnull align 4 dereferenceable(4) addrspace(1) i32* @_ZNSt3__25arrayIjLj4EEixEj(%"struct.std::__2::array.2"* nonnull dereferenceable(16) %data_4, i32 %i.01) #31, !dbg !1331
  store i32 %and, i32* %call5, align 4, !dbg !1332, !tbaa !1076
  %inc = add nuw nsw i32 %i.01, 1, !dbg !1333
  call addrspace(1) void @llvm.dbg.value(metadata i32 %inc, metadata !1319, metadata !DIExpression()), !dbg !1323
  %exitcond = icmp ne i32 %inc, 4, !dbg !1334
  br i1 %exitcond, label %for.body, label %for.end, !dbg !1324, !llvm.loop !1335

for.end:                                          ; preds = %for.body
  %2 = load %"class.aie::detail::mask", %"class.aie::detail::mask"* %retval, align 4, !dbg !1337
  ret %"class.aie::detail::mask" %2, !dbg !1337
}

; Function Attrs: alwaysinline nounwind mustprogress
define linkonce_odr dso_local void @_ZN3aie3addINS_6detail6vectorIhLj128EEES3_EEN22aie_dm_resource_removeIT_E4typeERKS5_RKT0_(%"class.aie::detail::vector.1"* noalias sret(%"class.aie::detail::vector.1") align 32 %agg.result, %"class.aie::detail::vector.1"* nonnull align 32 dereferenceable(128) %v1, %"class.aie::detail::vector.1"* nonnull align 32 dereferenceable(128) %v2) addrspace(1) #9 comdat !dbg !1338 {
entry:
  call addrspace(1) void @llvm.dbg.value(metadata %"class.aie::detail::vector.1"* %v1, metadata !1348, metadata !DIExpression()), !dbg !1351
  call addrspace(1) void @llvm.dbg.value(metadata %"class.aie::detail::vector.1"* %v2, metadata !1349, metadata !DIExpression()), !dbg !1351
  call addrspace(1) void @llvm.dbg.value(metadata i32 undef, metadata !1350, metadata !DIExpression()), !dbg !1351
  call addrspace(1) void @llvm.dbg.value(metadata i32 128, metadata !1350, metadata !DIExpression()), !dbg !1351
  call addrspace(1) void @_ZN3aie6detail12add_sub_bitsILj8EhLj128ELNS0_15AddSubOperationE0EE3runERKNS0_6vectorIhLj128EEES7_(%"class.aie::detail::vector.1"* sret(%"class.aie::detail::vector.1") align 32 %agg.result, %"class.aie::detail::vector.1"* nonnull align 32 dereferenceable(128) %v1, %"class.aie::detail::vector.1"* nonnull align 32 dereferenceable(128) %v2) #26, !dbg !1352
  ret void, !dbg !1353
}

; Function Attrs: alwaysinline nounwind mustprogress
define linkonce_odr dso_local void @_ZN3aie6detail12add_sub_bitsILj8EhLj128ELNS0_15AddSubOperationE0EE3runERKNS0_6vectorIhLj128EEES7_(%"class.aie::detail::vector.1"* noalias sret(%"class.aie::detail::vector.1") align 32 %agg.result, %"class.aie::detail::vector.1"* nonnull align 32 dereferenceable(128) %v1, %"class.aie::detail::vector.1"* nonnull align 32 dereferenceable(128) %v2) addrspace(1) #9 comdat align 2 !dbg !1354 {
entry:
  call addrspace(1) void @llvm.dbg.value(metadata %"class.aie::detail::vector.1"* %v1, metadata !1375, metadata !DIExpression()), !dbg !1377
  call addrspace(1) void @llvm.dbg.value(metadata %"class.aie::detail::vector.1"* %v2, metadata !1376, metadata !DIExpression()), !dbg !1377
  call addrspace(1) void @_ZN3aie6detail17add_sub_bits_implILj8EhLj128ELNS0_15AddSubOperationE0EE3runERKNS0_6vectorIhLj128EEES7_(%"class.aie::detail::vector.1"* sret(%"class.aie::detail::vector.1") align 32 %agg.result, %"class.aie::detail::vector.1"* nonnull align 32 dereferenceable(128) %v1, %"class.aie::detail::vector.1"* nonnull align 32 dereferenceable(128) %v2) #26, !dbg !1378
  ret void, !dbg !1379
}

; Function Attrs: alwaysinline nounwind mustprogress
define linkonce_odr dso_local void @_ZN3aie6detail17add_sub_bits_implILj8EhLj128ELNS0_15AddSubOperationE0EE3runERKNS0_6vectorIhLj128EEES7_(%"class.aie::detail::vector.1"* noalias sret(%"class.aie::detail::vector.1") align 32 %agg.result, %"class.aie::detail::vector.1"* nonnull align 32 dereferenceable(128) %v1, %"class.aie::detail::vector.1"* nonnull align 32 dereferenceable(128) %v2) addrspace(1) #9 comdat align 2 !dbg !1380 {
entry:
  %tmp1_1 = alloca %"class.aie::detail::vector.8", align 32
  %tmp1_2 = alloca %"class.aie::detail::vector.8", align 32
  %tmp2_1 = alloca %"class.aie::detail::vector.8", align 32
  %tmp2_2 = alloca %"class.aie::detail::vector.8", align 32
  %custom_type.tmp = alloca %"class.aie::detail::vector.1", align 32
  %ref.tmp = alloca %"class.aie::detail::vector.8", align 32
  %ref.tmp6 = alloca %"class.aie::detail::vector.8", align 32
  call addrspace(1) void @llvm.dbg.value(metadata %"class.aie::detail::vector.1"* %v1, metadata !1397, metadata !DIExpression()), !dbg !1626
  call addrspace(1) void @llvm.dbg.value(metadata %"class.aie::detail::vector.1"* %v2, metadata !1398, metadata !DIExpression()), !dbg !1626
  store %"class.aie::detail::vector.8" undef, %"class.aie::detail::vector.8"* %tmp1_1, align 32, !dbg !1627
  %0 = bitcast %"class.aie::detail::vector.8"* %tmp1_1 to i8*, !dbg !1627
  call addrspace(1) void @llvm.lifetime.start.p0i8(i64 64, i8* %0) #30, !dbg !1627
  call addrspace(1) void @llvm.dbg.declare(metadata %"class.aie::detail::vector.8"* %tmp1_1, metadata !1399, metadata !DIExpression()), !dbg !1628
  %call = call addrspace(1) %"class.aie::detail::vector.8" @_ZNK3aie6detail6vectorIhLj128EE7extractILj64EEENS1_IhXT_EEEj(%"class.aie::detail::vector.1"* nonnull dereferenceable(128) %v1, i32 0) #26, !dbg !1629
  %1 = getelementptr inbounds %"class.aie::detail::vector.8", %"class.aie::detail::vector.8"* %tmp1_1, i32 0, i32 0, !dbg !1629
  %2 = extractvalue %"class.aie::detail::vector.8" %call, 0, !dbg !1629
  store %struct.v64uint8 %2, %struct.v64uint8* %1, align 32, !dbg !1629
  store %"class.aie::detail::vector.8" undef, %"class.aie::detail::vector.8"* %tmp1_2, align 32, !dbg !1630
  %3 = bitcast %"class.aie::detail::vector.8"* %tmp1_2 to i8*, !dbg !1630
  call addrspace(1) void @llvm.lifetime.start.p0i8(i64 64, i8* %3) #30, !dbg !1630
  call addrspace(1) void @llvm.dbg.declare(metadata %"class.aie::detail::vector.8"* %tmp1_2, metadata !1622, metadata !DIExpression()), !dbg !1631
  %call1 = call addrspace(1) %"class.aie::detail::vector.8" @_ZNK3aie6detail6vectorIhLj128EE7extractILj64EEENS1_IhXT_EEEj(%"class.aie::detail::vector.1"* nonnull dereferenceable(128) %v1, i32 1) #26, !dbg !1632
  %4 = getelementptr inbounds %"class.aie::detail::vector.8", %"class.aie::detail::vector.8"* %tmp1_2, i32 0, i32 0, !dbg !1632
  %5 = extractvalue %"class.aie::detail::vector.8" %call1, 0, !dbg !1632
  store %struct.v64uint8 %5, %struct.v64uint8* %4, align 32, !dbg !1632
  store %"class.aie::detail::vector.8" undef, %"class.aie::detail::vector.8"* %tmp2_1, align 32, !dbg !1633
  %6 = bitcast %"class.aie::detail::vector.8"* %tmp2_1 to i8*, !dbg !1633
  call addrspace(1) void @llvm.lifetime.start.p0i8(i64 64, i8* %6) #30, !dbg !1633
  call addrspace(1) void @llvm.dbg.declare(metadata %"class.aie::detail::vector.8"* %tmp2_1, metadata !1623, metadata !DIExpression()), !dbg !1634
  %call2 = call addrspace(1) %"class.aie::detail::vector.8" @_ZNK3aie6detail6vectorIhLj128EE7extractILj64EEENS1_IhXT_EEEj(%"class.aie::detail::vector.1"* nonnull dereferenceable(128) %v2, i32 0) #26, !dbg !1635
  %7 = getelementptr inbounds %"class.aie::detail::vector.8", %"class.aie::detail::vector.8"* %tmp2_1, i32 0, i32 0, !dbg !1635
  %8 = extractvalue %"class.aie::detail::vector.8" %call2, 0, !dbg !1635
  store %struct.v64uint8 %8, %struct.v64uint8* %7, align 32, !dbg !1635
  store %"class.aie::detail::vector.8" undef, %"class.aie::detail::vector.8"* %tmp2_2, align 32, !dbg !1636
  %9 = bitcast %"class.aie::detail::vector.8"* %tmp2_2 to i8*, !dbg !1636
  call addrspace(1) void @llvm.lifetime.start.p0i8(i64 64, i8* %9) #30, !dbg !1636
  call addrspace(1) void @llvm.dbg.declare(metadata %"class.aie::detail::vector.8"* %tmp2_2, metadata !1624, metadata !DIExpression()), !dbg !1637
  %call3 = call addrspace(1) %"class.aie::detail::vector.8" @_ZNK3aie6detail6vectorIhLj128EE7extractILj64EEENS1_IhXT_EEEj(%"class.aie::detail::vector.1"* nonnull dereferenceable(128) %v2, i32 1) #26, !dbg !1638
  %10 = getelementptr inbounds %"class.aie::detail::vector.8", %"class.aie::detail::vector.8"* %tmp2_2, i32 0, i32 0, !dbg !1638
  %11 = extractvalue %"class.aie::detail::vector.8" %call3, 0, !dbg !1638
  store %struct.v64uint8 %11, %struct.v64uint8* %10, align 32, !dbg !1638
  call addrspace(1) void @llvm.dbg.declare(metadata %"class.aie::detail::vector.1"* %agg.result, metadata !1625, metadata !DIExpression()), !dbg !1639
  call addrspace(1) void @_ZN3aie6detail6vectorIhLj128EEC2Ev(%"class.aie::detail::vector.1"* nonnull dereferenceable(128) %custom_type.tmp) #26, !dbg !1639
  %12 = load %"class.aie::detail::vector.1", %"class.aie::detail::vector.1"* %custom_type.tmp, align 32, !dbg !1639, !tbaa !1640
  store %"class.aie::detail::vector.1" %12, %"class.aie::detail::vector.1"* %agg.result, align 32, !dbg !1639, !tbaa !1640
  %13 = bitcast %"class.aie::detail::vector.8"* %ref.tmp to i8*, !dbg !1644
  call addrspace(1) void @llvm.lifetime.start.p0i8(i64 64, i8* %13) #30, !dbg !1644
  %call4 = call addrspace(1) %"class.aie::detail::vector.8" @_ZN3aie6detail17add_sub_bits_implILj8EhLj64ELNS0_15AddSubOperationE0EE3runERKNS0_6vectorIhLj64EEES7_(%"class.aie::detail::vector.8"* nonnull align 32 dereferenceable(64) %tmp1_1, %"class.aie::detail::vector.8"* nonnull align 32 dereferenceable(64) %tmp2_1) #26, !dbg !1644
  %14 = getelementptr inbounds %"class.aie::detail::vector.8", %"class.aie::detail::vector.8"* %ref.tmp, i32 0, i32 0, !dbg !1644
  %15 = extractvalue %"class.aie::detail::vector.8" %call4, 0, !dbg !1644
  store %struct.v64uint8 %15, %struct.v64uint8* %14, align 32, !dbg !1644
  %call5 = call nonnull align 32 dereferenceable(128) addrspace(1) %"class.aie::detail::vector.1"* @_ZN3aie6detail6vectorIhLj128EE6insertILj64EEERS2_jRKNS1_IhXT_EEE(%"class.aie::detail::vector.1"* nonnull dereferenceable(128) %agg.result, i32 0, %"class.aie::detail::vector.8"* nonnull align 32 dereferenceable(64) %ref.tmp) #26, !dbg !1645
  %16 = bitcast %"class.aie::detail::vector.8"* %ref.tmp to i8*, !dbg !1646
  call addrspace(1) void @llvm.lifetime.end.p0i8(i64 64, i8* %16) #30, !dbg !1646
  %17 = bitcast %"class.aie::detail::vector.8"* %ref.tmp6 to i8*, !dbg !1647
  call addrspace(1) void @llvm.lifetime.start.p0i8(i64 64, i8* %17) #30, !dbg !1647
  %call7 = call addrspace(1) %"class.aie::detail::vector.8" @_ZN3aie6detail17add_sub_bits_implILj8EhLj64ELNS0_15AddSubOperationE0EE3runERKNS0_6vectorIhLj64EEES7_(%"class.aie::detail::vector.8"* nonnull align 32 dereferenceable(64) %tmp1_2, %"class.aie::detail::vector.8"* nonnull align 32 dereferenceable(64) %tmp2_2) #26, !dbg !1647
  %18 = getelementptr inbounds %"class.aie::detail::vector.8", %"class.aie::detail::vector.8"* %ref.tmp6, i32 0, i32 0, !dbg !1647
  %19 = extractvalue %"class.aie::detail::vector.8" %call7, 0, !dbg !1647
  store %struct.v64uint8 %19, %struct.v64uint8* %18, align 32, !dbg !1647
  %call8 = call nonnull align 32 dereferenceable(128) addrspace(1) %"class.aie::detail::vector.1"* @_ZN3aie6detail6vectorIhLj128EE6insertILj64EEERS2_jRKNS1_IhXT_EEE(%"class.aie::detail::vector.1"* nonnull dereferenceable(128) %agg.result, i32 1, %"class.aie::detail::vector.8"* nonnull align 32 dereferenceable(64) %ref.tmp6) #26, !dbg !1648
  %20 = bitcast %"class.aie::detail::vector.8"* %ref.tmp6 to i8*, !dbg !1649
  call addrspace(1) void @llvm.lifetime.end.p0i8(i64 64, i8* %20) #30, !dbg !1649
  %21 = bitcast %"class.aie::detail::vector.8"* %tmp2_2 to i8*, !dbg !1650
  call addrspace(1) void @llvm.lifetime.end.p0i8(i64 64, i8* %21) #30, !dbg !1650
  %22 = bitcast %"class.aie::detail::vector.8"* %tmp2_1 to i8*, !dbg !1650
  call addrspace(1) void @llvm.lifetime.end.p0i8(i64 64, i8* %22) #30, !dbg !1650
  %23 = bitcast %"class.aie::detail::vector.8"* %tmp1_2 to i8*, !dbg !1650
  call addrspace(1) void @llvm.lifetime.end.p0i8(i64 64, i8* %23) #30, !dbg !1650
  %24 = bitcast %"class.aie::detail::vector.8"* %tmp1_1 to i8*, !dbg !1650
  call addrspace(1) void @llvm.lifetime.end.p0i8(i64 64, i8* %24) #30, !dbg !1650
  ret void, !dbg !1651
}

; Function Attrs: alwaysinline nounwind mustprogress
define linkonce_odr dso_local %"class.aie::detail::vector.8" @_ZNK3aie6detail6vectorIhLj128EE7extractILj64EEENS1_IhXT_EEEj(%"class.aie::detail::vector.1"* nonnull dereferenceable(128) %this, i32 %idx) addrspace(1) #9 comdat align 2 !dbg !1652 {
entry:
  %retval = alloca %"class.aie::detail::vector.8", align 32
  %custom_type.tmp = alloca %"class.aie::detail::vector.8", align 32
  %custom_type.tmp8 = alloca %"class.aie::detail::vector.8", align 32
  call addrspace(1) void @llvm.dbg.value(metadata %"class.aie::detail::vector.1"* %this, metadata !1659, metadata !DIExpression()), !dbg !1668
  call addrspace(1) void @llvm.dbg.value(metadata i32 %idx, metadata !1660, metadata !DIExpression()), !dbg !1668
  %cmp = icmp ult i32 %idx, 2, !dbg !1669
  %0 = call addrspace(1) i1 @llvm.is.constant.i1(i1 %cmp), !dbg !1669
  br i1 %0, label %do.body, label %if.end4, !dbg !1671

do.body:                                          ; preds = %entry
  %cmp2 = icmp ult i32 %idx, 2, !dbg !1672
  %1 = call addrspace(1) i1 @llvm.chess_manifest(i1 %cmp2), !dbg !1672
  br i1 %1, label %if.end4, label %if.then3, !dbg !1676

if.then3:                                         ; preds = %do.body
  call addrspace(1) void @llvm.chess_error(metadata !1677), !dbg !1672
  unreachable, !dbg !1672

if.end4:                                          ; preds = %do.body, %entry
  %cmp5 = icmp ult i32 %idx, 2, !dbg !1671
  call addrspace(1) void @llvm.assume(i1 %cmp5), !dbg !1671
  call addrspace(1) void @llvm.dbg.value(metadata i32 undef, metadata !1661, metadata !DIExpression()), !dbg !1668
  call addrspace(1) void @llvm.dbg.value(metadata i32 512, metadata !1661, metadata !DIExpression()), !dbg !1668
  call addrspace(1) void @llvm.dbg.declare(metadata %"class.aie::detail::vector.8"* %retval, metadata !1662, metadata !DIExpression()), !dbg !1678
  call addrspace(1) void @_ZN3aie6detail6vectorIhLj64EEC2Ev(%"class.aie::detail::vector.8"* nonnull dereferenceable(64) %custom_type.tmp) #26, !dbg !1678
  %2 = load %"class.aie::detail::vector.8", %"class.aie::detail::vector.8"* %custom_type.tmp, align 32, !dbg !1678, !tbaa !1679
  store %"class.aie::detail::vector.8" %2, %"class.aie::detail::vector.8"* %retval, align 32, !dbg !1678, !tbaa !1679
  %3 = call addrspace(1) i1 @llvm.is.constant.i32(i32 %idx), !dbg !1681
  br i1 %3, label %if.then6, label %if.else, !dbg !1682

if.then6:                                         ; preds = %if.end4
  %data = getelementptr inbounds %"class.aie::detail::vector.8", %"class.aie::detail::vector.8"* %retval, i32 0, i32 0, !dbg !1683
  %data7 = getelementptr inbounds %"class.aie::detail::vector.1", %"class.aie::detail::vector.1"* %this, i32 0, i32 0, !dbg !1688
  %call = call nonnull align 32 dereferenceable(64) addrspace(1) %struct.v64uint8* @_ZNKSt3__25arrayI8v64uint8Lj2EEixEj(%"struct.std::__2::array"* nonnull dereferenceable(128) %data7, i32 %idx) #31, !dbg !1688
  %4 = load %struct.v64uint8, %struct.v64uint8* %call, align 32, !dbg !1688, !tbaa !1689
  store %struct.v64uint8 %4, %struct.v64uint8* %data, align 32, !dbg !1688, !tbaa !1689
  br label %cleanup, !dbg !1690

if.else:                                          ; preds = %if.end4
  call addrspace(1) void @llvm.dbg.value(metadata i32 undef, metadata !1665, metadata !DIExpression()), !dbg !1691
  call addrspace(1) void @llvm.dbg.value(metadata i32 8, metadata !1665, metadata !DIExpression()), !dbg !1691
  %data9 = getelementptr inbounds %"class.aie::detail::vector.1", %"class.aie::detail::vector.1"* %this, i32 0, i32 0, !dbg !1692
  %call10 = call nonnull align 32 dereferenceable(64) addrspace(1) %struct.v64uint8* @_ZNKSt3__25arrayI8v64uint8Lj2EEixEj(%"struct.std::__2::array"* nonnull dereferenceable(128) %data9, i32 %idx) #31, !dbg !1692
  %5 = load %struct.v64uint8, %struct.v64uint8* %call10, align 32, !dbg !1692, !tbaa !1689
  call addrspace(1) void @_ZN3aie6detail6vectorIhLj64EEC2E8v64uint8(%"class.aie::detail::vector.8"* nonnull dereferenceable(64) %custom_type.tmp8, %struct.v64uint8 %5) #26, !dbg !1692
  %6 = load %"class.aie::detail::vector.8", %"class.aie::detail::vector.8"* %custom_type.tmp8, align 32, !dbg !1692, !tbaa !1679
  store %"class.aie::detail::vector.8" %6, %"class.aie::detail::vector.8"* %retval, align 32, !dbg !1692, !tbaa !1679
  br label %cleanup, !dbg !1695

cleanup:                                          ; preds = %if.else, %if.then6
  %7 = load %"class.aie::detail::vector.8", %"class.aie::detail::vector.8"* %retval, align 32, !dbg !1696
  ret %"class.aie::detail::vector.8" %7, !dbg !1696
}

; Function Attrs: alwaysinline nounwind
define linkonce_odr dso_local void @_ZN3aie6detail6vectorIhLj128EEC2Ev(%"class.aie::detail::vector.1"* nonnull dereferenceable(128) %this) unnamed_addr addrspace(1) #11 comdat align 2 !dbg !1697 {
entry:
  call addrspace(1) void @llvm.dbg.value(metadata %"class.aie::detail::vector.1"* %this, metadata !1699, metadata !DIExpression()), !dbg !1701
  %data = getelementptr inbounds %"class.aie::detail::vector.1", %"class.aie::detail::vector.1"* %this, i32 0, i32 0, !dbg !1702
  call addrspace(1) void @_ZN3aie6detail14vector_storageIhLj128EE5undefEv(%"struct.std::__2::array"* sret(%"struct.std::__2::array") align 32 %data) #26, !dbg !1703
  ret void, !dbg !1704
}

; Function Attrs: alwaysinline nounwind mustprogress
define linkonce_odr dso_local %"class.aie::detail::vector.8" @_ZN3aie6detail17add_sub_bits_implILj8EhLj64ELNS0_15AddSubOperationE0EE3runERKNS0_6vectorIhLj64EEES7_(%"class.aie::detail::vector.8"* nonnull align 32 dereferenceable(64) %v1, %"class.aie::detail::vector.8"* nonnull align 32 dereferenceable(64) %v2) addrspace(1) #9 comdat align 2 !dbg !1705 {
entry:
  %retval = alloca %"class.aie::detail::vector.8", align 32
  %tmp1 = alloca %"class.aie::detail::vector.14", align 32
  %tmp2 = alloca %"class.aie::detail::vector.14", align 32
  %ref.tmp = alloca %"class.aie::detail::vector.14", align 32
  call addrspace(1) void @llvm.dbg.value(metadata %"class.aie::detail::vector.8"* %v1, metadata !1722, metadata !DIExpression()), !dbg !1728
  call addrspace(1) void @llvm.dbg.value(metadata %"class.aie::detail::vector.8"* %v2, metadata !1723, metadata !DIExpression()), !dbg !1728
  store %"class.aie::detail::vector.14" undef, %"class.aie::detail::vector.14"* %tmp1, align 32, !dbg !1729
  %0 = bitcast %"class.aie::detail::vector.14"* %tmp1 to i8*, !dbg !1729
  call addrspace(1) void @llvm.lifetime.start.p0i8(i64 128, i8* %0) #30, !dbg !1729
  call addrspace(1) void @llvm.dbg.declare(metadata %"class.aie::detail::vector.14"* %tmp1, metadata !1724, metadata !DIExpression()), !dbg !1730
  call addrspace(1) void @_ZNK3aie6detail6vectorIhLj64EE6unpackEv(%"class.aie::detail::vector.14"* sret(%"class.aie::detail::vector.14") align 32 %tmp1, %"class.aie::detail::vector.8"* nonnull dereferenceable(64) %v1) #26, !dbg !1731
  store %"class.aie::detail::vector.14" undef, %"class.aie::detail::vector.14"* %tmp2, align 32, !dbg !1732
  %1 = bitcast %"class.aie::detail::vector.14"* %tmp2 to i8*, !dbg !1732
  call addrspace(1) void @llvm.lifetime.start.p0i8(i64 128, i8* %1) #30, !dbg !1732
  call addrspace(1) void @llvm.dbg.declare(metadata %"class.aie::detail::vector.14"* %tmp2, metadata !1727, metadata !DIExpression()), !dbg !1733
  call addrspace(1) void @_ZNK3aie6detail6vectorIhLj64EE6unpackEv(%"class.aie::detail::vector.14"* sret(%"class.aie::detail::vector.14") align 32 %tmp2, %"class.aie::detail::vector.8"* nonnull dereferenceable(64) %v2) #26, !dbg !1734
  %2 = bitcast %"class.aie::detail::vector.14"* %ref.tmp to i8*, !dbg !1735
  call addrspace(1) void @llvm.lifetime.start.p0i8(i64 128, i8* %2) #30, !dbg !1735
  call addrspace(1) void @_ZN3aie6detail17add_sub_bits_implILj16EsLj64ELNS0_15AddSubOperationE0EE3runERKNS0_6vectorIsLj64EEES7_(%"class.aie::detail::vector.14"* sret(%"class.aie::detail::vector.14") align 32 %ref.tmp, %"class.aie::detail::vector.14"* nonnull align 32 dereferenceable(128) %tmp1, %"class.aie::detail::vector.14"* nonnull align 32 dereferenceable(128) %tmp2) #26, !dbg !1735
  %call = call addrspace(1) %"class.aie::detail::vector.8" @_ZNK3aie6detail6vectorIsLj64EE4packIhEENS1_IT_Lj64EEEv(%"class.aie::detail::vector.14"* nonnull dereferenceable(128) %ref.tmp) #26, !dbg !1736
  %3 = getelementptr inbounds %"class.aie::detail::vector.8", %"class.aie::detail::vector.8"* %retval, i32 0, i32 0, !dbg !1736
  %4 = extractvalue %"class.aie::detail::vector.8" %call, 0, !dbg !1736
  store %struct.v64uint8 %4, %struct.v64uint8* %3, align 32, !dbg !1736
  %5 = bitcast %"class.aie::detail::vector.14"* %ref.tmp to i8*, !dbg !1737
  call addrspace(1) void @llvm.lifetime.end.p0i8(i64 128, i8* %5) #30, !dbg !1737
  %6 = bitcast %"class.aie::detail::vector.14"* %tmp2 to i8*, !dbg !1738
  call addrspace(1) void @llvm.lifetime.end.p0i8(i64 128, i8* %6) #30, !dbg !1738
  %7 = bitcast %"class.aie::detail::vector.14"* %tmp1 to i8*, !dbg !1738
  call addrspace(1) void @llvm.lifetime.end.p0i8(i64 128, i8* %7) #30, !dbg !1738
  %8 = load %"class.aie::detail::vector.8", %"class.aie::detail::vector.8"* %retval, align 32, !dbg !1739
  ret %"class.aie::detail::vector.8" %8, !dbg !1739
}

; Function Attrs: alwaysinline nounwind mustprogress
define linkonce_odr dso_local nonnull align 32 dereferenceable(128) %"class.aie::detail::vector.1"* @_ZN3aie6detail6vectorIhLj128EE6insertILj64EEERS2_jRKNS1_IhXT_EEE(%"class.aie::detail::vector.1"* nonnull dereferenceable(128) %this, i32 %idx, %"class.aie::detail::vector.8"* nonnull align 32 dereferenceable(64) %v) addrspace(1) #9 comdat align 2 !dbg !1740 {
entry:
  call addrspace(1) void @llvm.dbg.value(metadata %"class.aie::detail::vector.1"* %this, metadata !1748, metadata !DIExpression()), !dbg !1752
  call addrspace(1) void @llvm.dbg.value(metadata i32 %idx, metadata !1749, metadata !DIExpression()), !dbg !1752
  call addrspace(1) void @llvm.dbg.value(metadata %"class.aie::detail::vector.8"* %v, metadata !1750, metadata !DIExpression()), !dbg !1752
  %cmp = icmp ult i32 %idx, 2, !dbg !1753
  %0 = call addrspace(1) i1 @llvm.is.constant.i1(i1 %cmp), !dbg !1753
  br i1 %0, label %do.body, label %if.end4, !dbg !1755

do.body:                                          ; preds = %entry
  %cmp2 = icmp ult i32 %idx, 2, !dbg !1756
  %1 = call addrspace(1) i1 @llvm.chess_manifest(i1 %cmp2), !dbg !1756
  br i1 %1, label %if.end4, label %if.then3, !dbg !1760

if.then3:                                         ; preds = %do.body
  call addrspace(1) void @llvm.chess_error(metadata !1677), !dbg !1756
  unreachable, !dbg !1756

if.end4:                                          ; preds = %do.body, %entry
  %cmp5 = icmp ult i32 %idx, 2, !dbg !1755
  call addrspace(1) void @llvm.assume(i1 %cmp5), !dbg !1755
  call addrspace(1) void @llvm.dbg.value(metadata i32 undef, metadata !1751, metadata !DIExpression()), !dbg !1752
  call addrspace(1) void @llvm.dbg.value(metadata i32 512, metadata !1751, metadata !DIExpression()), !dbg !1752
  %2 = call addrspace(1) i1 @llvm.is.constant.i32(i32 %idx), !dbg !1761
  br i1 %2, label %if.then6, label %if.else, !dbg !1765

if.then6:                                         ; preds = %if.end4
  %data = getelementptr inbounds %"class.aie::detail::vector.1", %"class.aie::detail::vector.1"* %this, i32 0, i32 0, !dbg !1766
  %call = call nonnull align 32 dereferenceable(64) addrspace(1) %struct.v64uint8* @_ZNSt3__25arrayI8v64uint8Lj2EEixEj(%"struct.std::__2::array"* nonnull dereferenceable(128) %data, i32 %idx) #31, !dbg !1766
  %data7 = getelementptr inbounds %"class.aie::detail::vector.8", %"class.aie::detail::vector.8"* %v, i32 0, i32 0, !dbg !1771
  %3 = load %struct.v64uint8, %struct.v64uint8* %data7, align 32, !dbg !1771, !tbaa !1689
  store %struct.v64uint8 %3, %struct.v64uint8* %call, align 32, !dbg !1771, !tbaa !1689
  br label %if.end11, !dbg !1772

if.else:                                          ; preds = %if.end4
  %data8 = getelementptr inbounds %"class.aie::detail::vector.1", %"class.aie::detail::vector.1"* %this, i32 0, i32 0, !dbg !1773
  %call9 = call nonnull align 32 dereferenceable(64) addrspace(1) %struct.v64uint8* @_ZNSt3__25arrayI8v64uint8Lj2EEixEj(%"struct.std::__2::array"* nonnull dereferenceable(128) %data8, i32 %idx) #31, !dbg !1773
  %data10 = getelementptr inbounds %"class.aie::detail::vector.8", %"class.aie::detail::vector.8"* %v, i32 0, i32 0, !dbg !1776
  %4 = load %struct.v64uint8, %struct.v64uint8* %data10, align 32, !dbg !1776, !tbaa !1689
  store %struct.v64uint8 %4, %struct.v64uint8* %call9, align 32, !dbg !1776, !tbaa !1689
  br label %if.end11

if.end11:                                         ; preds = %if.else, %if.then6
  ret %"class.aie::detail::vector.1"* %this, !dbg !1777
}

; Function Attrs: convergent nofree nosync nounwind readnone willreturn
declare i1 @llvm.is.constant.i1(i1) addrspace(1) #16

; Function Attrs: nounwind readnone willreturn
declare i1 @llvm.chess_manifest(i1) addrspace(1) #14

; Function Attrs: noreturn nounwind
declare void @llvm.chess_error(metadata) addrspace(1) #17

; Function Attrs: nofree nosync nounwind willreturn
declare void @llvm.assume(i1 noundef) addrspace(1) #18

; Function Attrs: convergent nofree nosync nounwind readnone willreturn
declare i1 @llvm.is.constant.i32(i32) addrspace(1) #16

; Function Attrs: alwaysinline nounwind mustprogress
define linkonce_odr hidden nonnull align 32 dereferenceable(64) %struct.v64uint8* @_ZNSt3__25arrayI8v64uint8Lj2EEixEj(%"struct.std::__2::array"* nonnull dereferenceable(128) %this, i32 %__n) addrspace(1) #9 comdat align 2 !dbg !1778 {
entry:
  call addrspace(1) void @llvm.dbg.value(metadata %"struct.std::__2::array"* %this, metadata !1780, metadata !DIExpression()), !dbg !1783
  call addrspace(1) void @llvm.dbg.value(metadata i32 %__n, metadata !1782, metadata !DIExpression()), !dbg !1783
  %__elems_ = getelementptr inbounds %"struct.std::__2::array", %"struct.std::__2::array"* %this, i32 0, i32 0, !dbg !1784
  %arrayidx = getelementptr inbounds [2 x %struct.v64uint8], [2 x %struct.v64uint8]* %__elems_, i32 0, i32 %__n, !dbg !1784
  ret %struct.v64uint8* %arrayidx, !dbg !1785
}

; Function Attrs: alwaysinline nounwind mustprogress
define linkonce_odr dso_local void @_ZNK3aie6detail6vectorIhLj64EE6unpackEv(%"class.aie::detail::vector.14"* noalias sret(%"class.aie::detail::vector.14") align 32 %agg.result, %"class.aie::detail::vector.8"* nonnull dereferenceable(64) %this) addrspace(1) #9 comdat align 2 !dbg !1786 {
entry:
  %custom_type.tmp = alloca %"class.aie::detail::vector.14", align 32
  %0 = alloca %"class.std::__2::tuple.32", align 32
  %ref.tmp = alloca %"class.aie::detail::vector.11", align 32
  %ref.tmp4 = alloca %"class.aie::detail::vector.11", align 32
  call addrspace(1) void @llvm.dbg.value(metadata %"class.aie::detail::vector.8"* %this, metadata !1788, metadata !DIExpression()), !dbg !2134
  call addrspace(1) void @llvm.dbg.declare(metadata %"class.aie::detail::vector.14"* %agg.result, metadata !1790, metadata !DIExpression()), !dbg !2135
  call addrspace(1) void @_ZN3aie6detail6vectorIsLj64EEC2Ev(%"class.aie::detail::vector.14"* nonnull dereferenceable(128) %custom_type.tmp) #26, !dbg !2135
  %1 = load %"class.aie::detail::vector.14", %"class.aie::detail::vector.14"* %custom_type.tmp, align 32, !dbg !2135, !tbaa !2136
  store %"class.aie::detail::vector.14" %1, %"class.aie::detail::vector.14"* %agg.result, align 32, !dbg !2135, !tbaa !2136
  store %"class.std::__2::tuple.32" undef, %"class.std::__2::tuple.32"* %0, align 32, !dbg !2139
  %2 = bitcast %"class.std::__2::tuple.32"* %0 to i8*, !dbg !2139
  call addrspace(1) void @llvm.lifetime.start.p0i8(i64 64, i8* %2) #30, !dbg !2139
  call addrspace(1) void @llvm.dbg.declare(metadata %"class.std::__2::tuple.32"* %0, metadata !1791, metadata !DIExpression()), !dbg !2140
  call addrspace(1) void @_ZNK3aie6detail6vectorIhLj64EE5splitILj32EEEDav(%"class.std::__2::tuple.32"* sret(%"class.std::__2::tuple.32") align 32 %0, %"class.aie::detail::vector.8"* nonnull dereferenceable(64) %this) #26, !dbg !2141
  call addrspace(1) void @llvm.dbg.value(metadata %"class.aie::detail::vector.35"* undef, metadata !2131, metadata !DIExpression()), !dbg !2142
  %call = call nonnull align 32 dereferenceable(32) addrspace(1) %"class.aie::detail::vector.35"* @_ZNSt3__23getILj0EJN3aie6detail6vectorIhLj32EEES4_EEEONS_13tuple_elementIXT_ENS_5tupleIJDpT0_EEEE4typeEOS9_(%"class.std::__2::tuple.32"* nonnull align 32 dereferenceable(64) %0) #31, !dbg !2143
  call addrspace(1) void @llvm.dbg.value(metadata %"class.aie::detail::vector.35"* %call, metadata !2131, metadata !DIExpression()), !dbg !2142
  call addrspace(1) void @llvm.dbg.value(metadata %"class.aie::detail::vector.35"* undef, metadata !2133, metadata !DIExpression()), !dbg !2142
  %call2 = call nonnull align 32 dereferenceable(32) addrspace(1) %"class.aie::detail::vector.35"* @_ZNSt3__23getILj1EJN3aie6detail6vectorIhLj32EEES4_EEEONS_13tuple_elementIXT_ENS_5tupleIJDpT0_EEEE4typeEOS9_(%"class.std::__2::tuple.32"* nonnull align 32 dereferenceable(64) %0) #31, !dbg !2144
  call addrspace(1) void @llvm.dbg.value(metadata %"class.aie::detail::vector.35"* %call2, metadata !2133, metadata !DIExpression()), !dbg !2142
  %3 = bitcast %"class.aie::detail::vector.11"* %ref.tmp to i8*, !dbg !2145
  call addrspace(1) void @llvm.lifetime.start.p0i8(i64 64, i8* %3) #30, !dbg !2145
  %call3 = call addrspace(1) %"class.aie::detail::vector.11" @_ZNK3aie6detail6vectorIhLj32EE6unpackEv(%"class.aie::detail::vector.35"* nonnull dereferenceable(32) %call) #26, !dbg !2146
  %4 = getelementptr inbounds %"class.aie::detail::vector.11", %"class.aie::detail::vector.11"* %ref.tmp, i32 0, i32 0, !dbg !2146
  %5 = extractvalue %"class.aie::detail::vector.11" %call3, 0, !dbg !2146
  store %struct.v32int16 %5, %struct.v32int16* %4, align 32, !dbg !2146
  %6 = bitcast %"class.aie::detail::vector.11"* %ref.tmp4 to i8*, !dbg !2147
  call addrspace(1) void @llvm.lifetime.start.p0i8(i64 64, i8* %6) #30, !dbg !2147
  %call5 = call addrspace(1) %"class.aie::detail::vector.11" @_ZNK3aie6detail6vectorIhLj32EE6unpackEv(%"class.aie::detail::vector.35"* nonnull dereferenceable(32) %call2) #26, !dbg !2148
  %7 = getelementptr inbounds %"class.aie::detail::vector.11", %"class.aie::detail::vector.11"* %ref.tmp4, i32 0, i32 0, !dbg !2148
  %8 = extractvalue %"class.aie::detail::vector.11" %call5, 0, !dbg !2148
  store %struct.v32int16 %8, %struct.v32int16* %7, align 32, !dbg !2148
  %call6 = call nonnull align 32 dereferenceable(128) addrspace(1) %"class.aie::detail::vector.14"* @_ZN3aie6detail6vectorIsLj64EE7upd_allIJNS1_IsLj32EEES4_EEERS2_DpOT_(%"class.aie::detail::vector.14"* nonnull dereferenceable(128) %agg.result, %"class.aie::detail::vector.11"* nonnull align 32 dereferenceable(64) %ref.tmp, %"class.aie::detail::vector.11"* nonnull align 32 dereferenceable(64) %ref.tmp4) #26, !dbg !2149
  %9 = bitcast %"class.aie::detail::vector.11"* %ref.tmp4 to i8*, !dbg !2150
  call addrspace(1) void @llvm.lifetime.end.p0i8(i64 64, i8* %9) #30, !dbg !2150
  %10 = bitcast %"class.aie::detail::vector.11"* %ref.tmp to i8*, !dbg !2150
  call addrspace(1) void @llvm.lifetime.end.p0i8(i64 64, i8* %10) #30, !dbg !2150
  %11 = bitcast %"class.std::__2::tuple.32"* %0 to i8*, !dbg !2151
  call addrspace(1) void @llvm.lifetime.end.p0i8(i64 64, i8* %11) #30, !dbg !2151
  ret void, !dbg !2152
}

; Function Attrs: alwaysinline nounwind mustprogress
define linkonce_odr dso_local void @_ZN3aie6detail17add_sub_bits_implILj16EsLj64ELNS0_15AddSubOperationE0EE3runERKNS0_6vectorIsLj64EEES7_(%"class.aie::detail::vector.14"* noalias sret(%"class.aie::detail::vector.14") align 32 %agg.result, %"class.aie::detail::vector.14"* nonnull align 32 dereferenceable(128) %v1, %"class.aie::detail::vector.14"* nonnull align 32 dereferenceable(128) %v2) addrspace(1) #9 comdat align 2 !dbg !2153 {
entry:
  %op = alloca %class.anon, align 1
  %tmp = alloca %"class.aie::detail::vector.11", align 32
  %custom_type.tmp = alloca %"class.aie::detail::vector.11", align 32
  %custom_type.tmp1 = alloca %"class.aie::detail::vector.14", align 32
  %custom_type.tmp2 = alloca %"class.aie::detail::vector.11", align 32
  %agg.tmp = alloca %struct.v32int16, align 32
  %ref.tmp = alloca %"class.aie::detail::vector.11", align 32
  %ref.tmp4 = alloca i32, align 4
  %ref.tmp5 = alloca i32, align 4
  %ref.tmp6 = alloca i32, align 4
  %ref.tmp7 = alloca i32, align 4
  %ref.tmp8 = alloca i32, align 4
  %ref.tmp9 = alloca i32, align 4
  %ref.tmp10 = alloca i32, align 4
  %ref.tmp11 = alloca i32, align 4
  %custom_type.tmp14 = alloca %"class.aie::detail::vector.11", align 32
  %agg.tmp15 = alloca %struct.v32int16, align 32
  %ref.tmp16 = alloca %"class.aie::detail::vector.11", align 32
  %ref.tmp18 = alloca i32, align 4
  %ref.tmp19 = alloca i32, align 4
  %ref.tmp20 = alloca i32, align 4
  %ref.tmp21 = alloca i32, align 4
  %ref.tmp22 = alloca i32, align 4
  %ref.tmp23 = alloca i32, align 4
  %ref.tmp24 = alloca i32, align 4
  %ref.tmp25 = alloca i32, align 4
  %custom_type.tmp28 = alloca %"class.aie::detail::vector.11", align 32
  %agg.tmp29 = alloca %struct.v32int16, align 32
  %ref.tmp30 = alloca %"class.aie::detail::vector.11", align 32
  %ref.tmp32 = alloca %"class.aie::detail::vector.11", align 32
  %custom_type.tmp36 = alloca %"class.aie::detail::vector.11", align 32
  %agg.tmp37 = alloca %struct.v32int16, align 32
  %ref.tmp38 = alloca %"class.aie::detail::vector.11", align 32
  %ref.tmp40 = alloca %"class.aie::detail::vector.11", align 32
  call addrspace(1) void @llvm.dbg.value(metadata %"class.aie::detail::vector.14"* %v1, metadata !2173, metadata !DIExpression()), !dbg !2183
  call addrspace(1) void @llvm.dbg.value(metadata %"class.aie::detail::vector.14"* %v2, metadata !2174, metadata !DIExpression()), !dbg !2183
  store %class.anon undef, %class.anon* %op, align 1, !dbg !2184
  %0 = bitcast %class.anon* %op to i8*, !dbg !2184
  call addrspace(1) void @llvm.lifetime.start.p0i8(i64 1, i8* %0) #30, !dbg !2184
  call addrspace(1) void @llvm.dbg.declare(metadata %class.anon* %op, metadata !2175, metadata !DIExpression()), !dbg !2185
  %1 = bitcast %class.anon* %op to i8*, !dbg !2185
  call addrspace(1) void @llvm.memcpy.p0i8.p0i8.i32(i8* align 1 %1, i8* align 1 getelementptr inbounds (%class.anon, %class.anon* @__const._ZN3aie6detail17add_sub_bits_implILj16EsLj64ELNS0_15AddSubOperationE0EE3runERKNS0_6vectorIsLj64EEES7_.op, i32 0, i32 0), i32 1, i1 false), !dbg !2185
  store %"class.aie::detail::vector.11" undef, %"class.aie::detail::vector.11"* %tmp, align 32, !dbg !2186
  %2 = bitcast %"class.aie::detail::vector.11"* %tmp to i8*, !dbg !2186
  call addrspace(1) void @llvm.lifetime.start.p0i8(i64 64, i8* %2) #30, !dbg !2186
  call addrspace(1) void @llvm.dbg.declare(metadata %"class.aie::detail::vector.11"* %tmp, metadata !2178, metadata !DIExpression()), !dbg !2187
  call addrspace(1) void @_ZN3aie6detail6vectorIsLj32EEC2Ev(%"class.aie::detail::vector.11"* nonnull dereferenceable(64) %custom_type.tmp) #26, !dbg !2187
  %3 = load %"class.aie::detail::vector.11", %"class.aie::detail::vector.11"* %custom_type.tmp, align 32, !dbg !2187, !tbaa !2188
  store %"class.aie::detail::vector.11" %3, %"class.aie::detail::vector.11"* %tmp, align 32, !dbg !2187, !tbaa !2188
  call addrspace(1) void @llvm.dbg.declare(metadata %"class.aie::detail::vector.14"* %agg.result, metadata !2182, metadata !DIExpression()), !dbg !2190
  call addrspace(1) void @_ZN3aie6detail6vectorIsLj64EEC2Ev(%"class.aie::detail::vector.14"* nonnull dereferenceable(128) %custom_type.tmp1) #26, !dbg !2190
  %4 = load %"class.aie::detail::vector.14", %"class.aie::detail::vector.14"* %custom_type.tmp1, align 32, !dbg !2190, !tbaa !2136
  store %"class.aie::detail::vector.14" %4, %"class.aie::detail::vector.14"* %agg.result, align 32, !dbg !2190, !tbaa !2136
  %call = call zeroext addrspace(1) i1 @_ZN3aie6detail5utils14is_same_objectINS0_6vectorIsLj64EEES4_EEbRKT_RKT0_(%"class.aie::detail::vector.14"* nonnull align 32 dereferenceable(128) %v1, %"class.aie::detail::vector.14"* nonnull align 32 dereferenceable(128) %v2) #32, !dbg !2191
  %5 = call addrspace(1) i1 @llvm.chess_manifest(i1 %call), !dbg !2191
  br i1 %5, label %if.then, label %if.else, !dbg !2193

if.then:                                          ; preds = %entry
  %6 = bitcast %"class.aie::detail::vector.11"* %ref.tmp to i8*, !dbg !2194
  call addrspace(1) void @llvm.lifetime.start.p0i8(i64 64, i8* %6) #30, !dbg !2194
  %call3 = call addrspace(1) %"class.aie::detail::vector.11" @_ZNK3aie6detail6vectorIsLj64EE7extractILj32EEENS1_IsXT_EEEj(%"class.aie::detail::vector.14"* nonnull dereferenceable(128) %v1, i32 0) #26, !dbg !2196
  %7 = getelementptr inbounds %"class.aie::detail::vector.11", %"class.aie::detail::vector.11"* %ref.tmp, i32 0, i32 0, !dbg !2196
  %8 = extractvalue %"class.aie::detail::vector.11" %call3, 0, !dbg !2196
  store %struct.v32int16 %8, %struct.v32int16* %7, align 32, !dbg !2196
  %9 = bitcast i32* %ref.tmp4 to i8*, !dbg !2197
  call addrspace(1) void @llvm.lifetime.start.p0i8(i64 4, i8* %9) #30, !dbg !2197
  store i32 0, i32* %ref.tmp4, align 4, !dbg !2197, !tbaa !1076
  %10 = bitcast i32* %ref.tmp5 to i8*, !dbg !2198
  call addrspace(1) void @llvm.lifetime.start.p0i8(i64 4, i8* %10) #30, !dbg !2198
  store i32 100925952, i32* %ref.tmp5, align 4, !dbg !2198, !tbaa !1076
  %11 = bitcast i32* %ref.tmp6 to i8*, !dbg !2199
  call addrspace(1) void @llvm.lifetime.start.p0i8(i64 4, i8* %11) #30, !dbg !2199
  store i32 235670024, i32* %ref.tmp6, align 4, !dbg !2199, !tbaa !1076
  %12 = bitcast i32* %ref.tmp7 to i8*, !dbg !2200
  call addrspace(1) void @llvm.lifetime.start.p0i8(i64 4, i8* %12) #30, !dbg !2200
  store i32 12816, i32* %ref.tmp7, align 4, !dbg !2200, !tbaa !1076
  %13 = bitcast i32* %ref.tmp8 to i8*, !dbg !2201
  call addrspace(1) void @llvm.lifetime.start.p0i8(i64 4, i8* %13) #30, !dbg !2201
  store i32 0, i32* %ref.tmp8, align 4, !dbg !2201, !tbaa !1076
  %14 = bitcast i32* %ref.tmp9 to i8*, !dbg !2202
  call addrspace(1) void @llvm.lifetime.start.p0i8(i64 4, i8* %14) #30, !dbg !2202
  store i32 100925952, i32* %ref.tmp9, align 4, !dbg !2202, !tbaa !1076
  %15 = bitcast i32* %ref.tmp10 to i8*, !dbg !2203
  call addrspace(1) void @llvm.lifetime.start.p0i8(i64 4, i8* %15) #30, !dbg !2203
  store i32 235670024, i32* %ref.tmp10, align 4, !dbg !2203, !tbaa !1076
  %16 = bitcast i32* %ref.tmp11 to i8*, !dbg !2204
  call addrspace(1) void @llvm.lifetime.start.p0i8(i64 4, i8* %16) #30, !dbg !2204
  store i32 12816, i32* %ref.tmp11, align 4, !dbg !2204, !tbaa !1076
  %call12 = call addrspace(1) %struct.v32int16 @_ZZN3aie6detail17add_sub_bits_implILj16EsLj64ELNS0_15AddSubOperationE0EE6get_opEvENKUlDpOT_E_clIJNS0_6vectorIsLj32EEEiiiiiiiiEEEDaS6_(%class.anon* nonnull dereferenceable(1) %op, %"class.aie::detail::vector.11"* nonnull align 32 dereferenceable(64) %ref.tmp, i32* nonnull align 4 dereferenceable(4) %ref.tmp4, i32* nonnull align 4 dereferenceable(4) %ref.tmp5, i32* nonnull align 4 dereferenceable(4) %ref.tmp6, i32* nonnull align 4 dereferenceable(4) %ref.tmp7, i32* nonnull align 4 dereferenceable(4) %ref.tmp8, i32* nonnull align 4 dereferenceable(4) %ref.tmp9, i32* nonnull align 4 dereferenceable(4) %ref.tmp10, i32* nonnull align 4 dereferenceable(4) %ref.tmp11) #26, !dbg !2205
  %17 = getelementptr inbounds %struct.v32int16, %struct.v32int16* %agg.tmp, i32 0, i32 0, !dbg !2205
  %18 = extractvalue %struct.v32int16 %call12, 0, !dbg !2205
  store %struct.ipd.custom_type.v64int8.v64int8 %18, %struct.ipd.custom_type.v64int8.v64int8* %17, align 32, !dbg !2205
  %19 = load %struct.v32int16, %struct.v32int16* %agg.tmp, align 32, !dbg !2205, !tbaa !1689
  call addrspace(1) void @_ZN3aie6detail6vectorIsLj32EEC2E8v32int16(%"class.aie::detail::vector.11"* nonnull dereferenceable(64) %custom_type.tmp2, %struct.v32int16 %19) #26, !dbg !2205
  %20 = load %"class.aie::detail::vector.11", %"class.aie::detail::vector.11"* %custom_type.tmp2, align 32, !dbg !2205, !tbaa !2188
  store %"class.aie::detail::vector.11" %20, %"class.aie::detail::vector.11"* %tmp, align 32, !dbg !2205, !tbaa !2188
  %21 = bitcast i32* %ref.tmp11 to i8*, !dbg !2206
  call addrspace(1) void @llvm.lifetime.end.p0i8(i64 4, i8* %21) #30, !dbg !2206
  %22 = bitcast i32* %ref.tmp10 to i8*, !dbg !2206
  call addrspace(1) void @llvm.lifetime.end.p0i8(i64 4, i8* %22) #30, !dbg !2206
  %23 = bitcast i32* %ref.tmp9 to i8*, !dbg !2206
  call addrspace(1) void @llvm.lifetime.end.p0i8(i64 4, i8* %23) #30, !dbg !2206
  %24 = bitcast i32* %ref.tmp8 to i8*, !dbg !2206
  call addrspace(1) void @llvm.lifetime.end.p0i8(i64 4, i8* %24) #30, !dbg !2206
  %25 = bitcast i32* %ref.tmp7 to i8*, !dbg !2206
  call addrspace(1) void @llvm.lifetime.end.p0i8(i64 4, i8* %25) #30, !dbg !2206
  %26 = bitcast i32* %ref.tmp6 to i8*, !dbg !2206
  call addrspace(1) void @llvm.lifetime.end.p0i8(i64 4, i8* %26) #30, !dbg !2206
  %27 = bitcast i32* %ref.tmp5 to i8*, !dbg !2206
  call addrspace(1) void @llvm.lifetime.end.p0i8(i64 4, i8* %27) #30, !dbg !2206
  %28 = bitcast i32* %ref.tmp4 to i8*, !dbg !2206
  call addrspace(1) void @llvm.lifetime.end.p0i8(i64 4, i8* %28) #30, !dbg !2206
  %29 = bitcast %"class.aie::detail::vector.11"* %ref.tmp to i8*, !dbg !2206
  call addrspace(1) void @llvm.lifetime.end.p0i8(i64 64, i8* %29) #30, !dbg !2206
  %call13 = call nonnull align 32 dereferenceable(128) addrspace(1) %"class.aie::detail::vector.14"* @_ZN3aie6detail6vectorIsLj64EE6insertILj32EEERS2_jRKNS1_IsXT_EEE(%"class.aie::detail::vector.14"* nonnull dereferenceable(128) %agg.result, i32 0, %"class.aie::detail::vector.11"* nonnull align 32 dereferenceable(64) %tmp) #26, !dbg !2207
  %30 = bitcast %"class.aie::detail::vector.11"* %ref.tmp16 to i8*, !dbg !2208
  call addrspace(1) void @llvm.lifetime.start.p0i8(i64 64, i8* %30) #30, !dbg !2208
  %call17 = call addrspace(1) %"class.aie::detail::vector.11" @_ZNK3aie6detail6vectorIsLj64EE7extractILj32EEENS1_IsXT_EEEj(%"class.aie::detail::vector.14"* nonnull dereferenceable(128) %v1, i32 1) #26, !dbg !2209
  %31 = getelementptr inbounds %"class.aie::detail::vector.11", %"class.aie::detail::vector.11"* %ref.tmp16, i32 0, i32 0, !dbg !2209
  %32 = extractvalue %"class.aie::detail::vector.11" %call17, 0, !dbg !2209
  store %struct.v32int16 %32, %struct.v32int16* %31, align 32, !dbg !2209
  %33 = bitcast i32* %ref.tmp18 to i8*, !dbg !2210
  call addrspace(1) void @llvm.lifetime.start.p0i8(i64 4, i8* %33) #30, !dbg !2210
  store i32 0, i32* %ref.tmp18, align 4, !dbg !2210, !tbaa !1076
  %34 = bitcast i32* %ref.tmp19 to i8*, !dbg !2211
  call addrspace(1) void @llvm.lifetime.start.p0i8(i64 4, i8* %34) #30, !dbg !2211
  store i32 100925952, i32* %ref.tmp19, align 4, !dbg !2211, !tbaa !1076
  %35 = bitcast i32* %ref.tmp20 to i8*, !dbg !2212
  call addrspace(1) void @llvm.lifetime.start.p0i8(i64 4, i8* %35) #30, !dbg !2212
  store i32 235670024, i32* %ref.tmp20, align 4, !dbg !2212, !tbaa !1076
  %36 = bitcast i32* %ref.tmp21 to i8*, !dbg !2213
  call addrspace(1) void @llvm.lifetime.start.p0i8(i64 4, i8* %36) #30, !dbg !2213
  store i32 12816, i32* %ref.tmp21, align 4, !dbg !2213, !tbaa !1076
  %37 = bitcast i32* %ref.tmp22 to i8*, !dbg !2214
  call addrspace(1) void @llvm.lifetime.start.p0i8(i64 4, i8* %37) #30, !dbg !2214
  store i32 0, i32* %ref.tmp22, align 4, !dbg !2214, !tbaa !1076
  %38 = bitcast i32* %ref.tmp23 to i8*, !dbg !2215
  call addrspace(1) void @llvm.lifetime.start.p0i8(i64 4, i8* %38) #30, !dbg !2215
  store i32 100925952, i32* %ref.tmp23, align 4, !dbg !2215, !tbaa !1076
  %39 = bitcast i32* %ref.tmp24 to i8*, !dbg !2216
  call addrspace(1) void @llvm.lifetime.start.p0i8(i64 4, i8* %39) #30, !dbg !2216
  store i32 235670024, i32* %ref.tmp24, align 4, !dbg !2216, !tbaa !1076
  %40 = bitcast i32* %ref.tmp25 to i8*, !dbg !2217
  call addrspace(1) void @llvm.lifetime.start.p0i8(i64 4, i8* %40) #30, !dbg !2217
  store i32 12816, i32* %ref.tmp25, align 4, !dbg !2217, !tbaa !1076
  %call26 = call addrspace(1) %struct.v32int16 @_ZZN3aie6detail17add_sub_bits_implILj16EsLj64ELNS0_15AddSubOperationE0EE6get_opEvENKUlDpOT_E_clIJNS0_6vectorIsLj32EEEiiiiiiiiEEEDaS6_(%class.anon* nonnull dereferenceable(1) %op, %"class.aie::detail::vector.11"* nonnull align 32 dereferenceable(64) %ref.tmp16, i32* nonnull align 4 dereferenceable(4) %ref.tmp18, i32* nonnull align 4 dereferenceable(4) %ref.tmp19, i32* nonnull align 4 dereferenceable(4) %ref.tmp20, i32* nonnull align 4 dereferenceable(4) %ref.tmp21, i32* nonnull align 4 dereferenceable(4) %ref.tmp22, i32* nonnull align 4 dereferenceable(4) %ref.tmp23, i32* nonnull align 4 dereferenceable(4) %ref.tmp24, i32* nonnull align 4 dereferenceable(4) %ref.tmp25) #26, !dbg !2218
  %41 = getelementptr inbounds %struct.v32int16, %struct.v32int16* %agg.tmp15, i32 0, i32 0, !dbg !2218
  %42 = extractvalue %struct.v32int16 %call26, 0, !dbg !2218
  store %struct.ipd.custom_type.v64int8.v64int8 %42, %struct.ipd.custom_type.v64int8.v64int8* %41, align 32, !dbg !2218
  %43 = load %struct.v32int16, %struct.v32int16* %agg.tmp15, align 32, !dbg !2218, !tbaa !1689
  call addrspace(1) void @_ZN3aie6detail6vectorIsLj32EEC2E8v32int16(%"class.aie::detail::vector.11"* nonnull dereferenceable(64) %custom_type.tmp14, %struct.v32int16 %43) #26, !dbg !2218
  %44 = load %"class.aie::detail::vector.11", %"class.aie::detail::vector.11"* %custom_type.tmp14, align 32, !dbg !2218, !tbaa !2188
  store %"class.aie::detail::vector.11" %44, %"class.aie::detail::vector.11"* %tmp, align 32, !dbg !2218, !tbaa !2188
  %45 = bitcast i32* %ref.tmp25 to i8*, !dbg !2219
  call addrspace(1) void @llvm.lifetime.end.p0i8(i64 4, i8* %45) #30, !dbg !2219
  %46 = bitcast i32* %ref.tmp24 to i8*, !dbg !2219
  call addrspace(1) void @llvm.lifetime.end.p0i8(i64 4, i8* %46) #30, !dbg !2219
  %47 = bitcast i32* %ref.tmp23 to i8*, !dbg !2219
  call addrspace(1) void @llvm.lifetime.end.p0i8(i64 4, i8* %47) #30, !dbg !2219
  %48 = bitcast i32* %ref.tmp22 to i8*, !dbg !2219
  call addrspace(1) void @llvm.lifetime.end.p0i8(i64 4, i8* %48) #30, !dbg !2219
  %49 = bitcast i32* %ref.tmp21 to i8*, !dbg !2219
  call addrspace(1) void @llvm.lifetime.end.p0i8(i64 4, i8* %49) #30, !dbg !2219
  %50 = bitcast i32* %ref.tmp20 to i8*, !dbg !2219
  call addrspace(1) void @llvm.lifetime.end.p0i8(i64 4, i8* %50) #30, !dbg !2219
  %51 = bitcast i32* %ref.tmp19 to i8*, !dbg !2219
  call addrspace(1) void @llvm.lifetime.end.p0i8(i64 4, i8* %51) #30, !dbg !2219
  %52 = bitcast i32* %ref.tmp18 to i8*, !dbg !2219
  call addrspace(1) void @llvm.lifetime.end.p0i8(i64 4, i8* %52) #30, !dbg !2219
  %53 = bitcast %"class.aie::detail::vector.11"* %ref.tmp16 to i8*, !dbg !2219
  call addrspace(1) void @llvm.lifetime.end.p0i8(i64 64, i8* %53) #30, !dbg !2219
  %call27 = call nonnull align 32 dereferenceable(128) addrspace(1) %"class.aie::detail::vector.14"* @_ZN3aie6detail6vectorIsLj64EE6insertILj32EEERS2_jRKNS1_IsXT_EEE(%"class.aie::detail::vector.14"* nonnull dereferenceable(128) %agg.result, i32 1, %"class.aie::detail::vector.11"* nonnull align 32 dereferenceable(64) %tmp) #26, !dbg !2220
  br label %if.end, !dbg !2221

if.else:                                          ; preds = %entry
  %54 = bitcast %"class.aie::detail::vector.11"* %ref.tmp30 to i8*, !dbg !2222
  call addrspace(1) void @llvm.lifetime.start.p0i8(i64 64, i8* %54) #30, !dbg !2222
  %call31 = call addrspace(1) %"class.aie::detail::vector.11" @_ZNK3aie6detail6vectorIsLj64EE7extractILj32EEENS1_IsXT_EEEj(%"class.aie::detail::vector.14"* nonnull dereferenceable(128) %v1, i32 0) #26, !dbg !2224
  %55 = getelementptr inbounds %"class.aie::detail::vector.11", %"class.aie::detail::vector.11"* %ref.tmp30, i32 0, i32 0, !dbg !2224
  %56 = extractvalue %"class.aie::detail::vector.11" %call31, 0, !dbg !2224
  store %struct.v32int16 %56, %struct.v32int16* %55, align 32, !dbg !2224
  %57 = bitcast %"class.aie::detail::vector.11"* %ref.tmp32 to i8*, !dbg !2225
  call addrspace(1) void @llvm.lifetime.start.p0i8(i64 64, i8* %57) #30, !dbg !2225
  %call33 = call addrspace(1) %"class.aie::detail::vector.11" @_ZNK3aie6detail6vectorIsLj64EE7extractILj32EEENS1_IsXT_EEEj(%"class.aie::detail::vector.14"* nonnull dereferenceable(128) %v2, i32 0) #26, !dbg !2226
  %58 = getelementptr inbounds %"class.aie::detail::vector.11", %"class.aie::detail::vector.11"* %ref.tmp32, i32 0, i32 0, !dbg !2226
  %59 = extractvalue %"class.aie::detail::vector.11" %call33, 0, !dbg !2226
  store %struct.v32int16 %59, %struct.v32int16* %58, align 32, !dbg !2226
  %call34 = call addrspace(1) %struct.v32int16 @_ZZN3aie6detail17add_sub_bits_implILj16EsLj64ELNS0_15AddSubOperationE0EE6get_opEvENKUlDpOT_E_clIJNS0_6vectorIsLj32EEESA_EEEDaS6_(%class.anon* nonnull dereferenceable(1) %op, %"class.aie::detail::vector.11"* nonnull align 32 dereferenceable(64) %ref.tmp30, %"class.aie::detail::vector.11"* nonnull align 32 dereferenceable(64) %ref.tmp32) #26, !dbg !2227
  %60 = getelementptr inbounds %struct.v32int16, %struct.v32int16* %agg.tmp29, i32 0, i32 0, !dbg !2227
  %61 = extractvalue %struct.v32int16 %call34, 0, !dbg !2227
  store %struct.ipd.custom_type.v64int8.v64int8 %61, %struct.ipd.custom_type.v64int8.v64int8* %60, align 32, !dbg !2227
  %62 = load %struct.v32int16, %struct.v32int16* %agg.tmp29, align 32, !dbg !2227, !tbaa !1689
  call addrspace(1) void @_ZN3aie6detail6vectorIsLj32EEC2E8v32int16(%"class.aie::detail::vector.11"* nonnull dereferenceable(64) %custom_type.tmp28, %struct.v32int16 %62) #26, !dbg !2227
  %63 = load %"class.aie::detail::vector.11", %"class.aie::detail::vector.11"* %custom_type.tmp28, align 32, !dbg !2227, !tbaa !2188
  store %"class.aie::detail::vector.11" %63, %"class.aie::detail::vector.11"* %tmp, align 32, !dbg !2227, !tbaa !2188
  %64 = bitcast %"class.aie::detail::vector.11"* %ref.tmp32 to i8*, !dbg !2228
  call addrspace(1) void @llvm.lifetime.end.p0i8(i64 64, i8* %64) #30, !dbg !2228
  %65 = bitcast %"class.aie::detail::vector.11"* %ref.tmp30 to i8*, !dbg !2228
  call addrspace(1) void @llvm.lifetime.end.p0i8(i64 64, i8* %65) #30, !dbg !2228
  %call35 = call nonnull align 32 dereferenceable(128) addrspace(1) %"class.aie::detail::vector.14"* @_ZN3aie6detail6vectorIsLj64EE6insertILj32EEERS2_jRKNS1_IsXT_EEE(%"class.aie::detail::vector.14"* nonnull dereferenceable(128) %agg.result, i32 0, %"class.aie::detail::vector.11"* nonnull align 32 dereferenceable(64) %tmp) #26, !dbg !2229
  %66 = bitcast %"class.aie::detail::vector.11"* %ref.tmp38 to i8*, !dbg !2230
  call addrspace(1) void @llvm.lifetime.start.p0i8(i64 64, i8* %66) #30, !dbg !2230
  %call39 = call addrspace(1) %"class.aie::detail::vector.11" @_ZNK3aie6detail6vectorIsLj64EE7extractILj32EEENS1_IsXT_EEEj(%"class.aie::detail::vector.14"* nonnull dereferenceable(128) %v1, i32 1) #26, !dbg !2231
  %67 = getelementptr inbounds %"class.aie::detail::vector.11", %"class.aie::detail::vector.11"* %ref.tmp38, i32 0, i32 0, !dbg !2231
  %68 = extractvalue %"class.aie::detail::vector.11" %call39, 0, !dbg !2231
  store %struct.v32int16 %68, %struct.v32int16* %67, align 32, !dbg !2231
  %69 = bitcast %"class.aie::detail::vector.11"* %ref.tmp40 to i8*, !dbg !2232
  call addrspace(1) void @llvm.lifetime.start.p0i8(i64 64, i8* %69) #30, !dbg !2232
  %call41 = call addrspace(1) %"class.aie::detail::vector.11" @_ZNK3aie6detail6vectorIsLj64EE7extractILj32EEENS1_IsXT_EEEj(%"class.aie::detail::vector.14"* nonnull dereferenceable(128) %v2, i32 1) #26, !dbg !2233
  %70 = getelementptr inbounds %"class.aie::detail::vector.11", %"class.aie::detail::vector.11"* %ref.tmp40, i32 0, i32 0, !dbg !2233
  %71 = extractvalue %"class.aie::detail::vector.11" %call41, 0, !dbg !2233
  store %struct.v32int16 %71, %struct.v32int16* %70, align 32, !dbg !2233
  %call42 = call addrspace(1) %struct.v32int16 @_ZZN3aie6detail17add_sub_bits_implILj16EsLj64ELNS0_15AddSubOperationE0EE6get_opEvENKUlDpOT_E_clIJNS0_6vectorIsLj32EEESA_EEEDaS6_(%class.anon* nonnull dereferenceable(1) %op, %"class.aie::detail::vector.11"* nonnull align 32 dereferenceable(64) %ref.tmp38, %"class.aie::detail::vector.11"* nonnull align 32 dereferenceable(64) %ref.tmp40) #26, !dbg !2234
  %72 = getelementptr inbounds %struct.v32int16, %struct.v32int16* %agg.tmp37, i32 0, i32 0, !dbg !2234
  %73 = extractvalue %struct.v32int16 %call42, 0, !dbg !2234
  store %struct.ipd.custom_type.v64int8.v64int8 %73, %struct.ipd.custom_type.v64int8.v64int8* %72, align 32, !dbg !2234
  %74 = load %struct.v32int16, %struct.v32int16* %agg.tmp37, align 32, !dbg !2234, !tbaa !1689
  call addrspace(1) void @_ZN3aie6detail6vectorIsLj32EEC2E8v32int16(%"class.aie::detail::vector.11"* nonnull dereferenceable(64) %custom_type.tmp36, %struct.v32int16 %74) #26, !dbg !2234
  %75 = load %"class.aie::detail::vector.11", %"class.aie::detail::vector.11"* %custom_type.tmp36, align 32, !dbg !2234, !tbaa !2188
  store %"class.aie::detail::vector.11" %75, %"class.aie::detail::vector.11"* %tmp, align 32, !dbg !2234, !tbaa !2188
  %76 = bitcast %"class.aie::detail::vector.11"* %ref.tmp40 to i8*, !dbg !2235
  call addrspace(1) void @llvm.lifetime.end.p0i8(i64 64, i8* %76) #30, !dbg !2235
  %77 = bitcast %"class.aie::detail::vector.11"* %ref.tmp38 to i8*, !dbg !2235
  call addrspace(1) void @llvm.lifetime.end.p0i8(i64 64, i8* %77) #30, !dbg !2235
  %call43 = call nonnull align 32 dereferenceable(128) addrspace(1) %"class.aie::detail::vector.14"* @_ZN3aie6detail6vectorIsLj64EE6insertILj32EEERS2_jRKNS1_IsXT_EEE(%"class.aie::detail::vector.14"* nonnull dereferenceable(128) %agg.result, i32 1, %"class.aie::detail::vector.11"* nonnull align 32 dereferenceable(64) %tmp) #26, !dbg !2236
  br label %if.end

if.end:                                           ; preds = %if.else, %if.then
  %78 = bitcast %"class.aie::detail::vector.11"* %tmp to i8*, !dbg !2237
  call addrspace(1) void @llvm.lifetime.end.p0i8(i64 64, i8* %78) #30, !dbg !2237
  %79 = bitcast %class.anon* %op to i8*, !dbg !2238
  call addrspace(1) void @llvm.lifetime.end.p0i8(i64 1, i8* %79) #30, !dbg !2238
  ret void, !dbg !2238
}

; Function Attrs: alwaysinline nounwind mustprogress
define linkonce_odr dso_local %"class.aie::detail::vector.8" @_ZNK3aie6detail6vectorIsLj64EE4packIhEENS1_IT_Lj64EEEv(%"class.aie::detail::vector.14"* nonnull dereferenceable(128) %this) addrspace(1) #9 comdat align 2 !dbg !2239 {
entry:
  %retval = alloca %"class.aie::detail::vector.8", align 32
  %custom_type.tmp = alloca %"class.aie::detail::vector.8", align 32
  %0 = alloca %"class.std::__2::tuple", align 32
  %ref.tmp = alloca %"class.aie::detail::vector.35", align 32
  %ref.tmp4 = alloca %"class.aie::detail::vector.35", align 32
  call addrspace(1) void @llvm.dbg.value(metadata %"class.aie::detail::vector.14"* %this, metadata !2246, metadata !DIExpression()), !dbg !2384
  call addrspace(1) void @llvm.dbg.declare(metadata %"class.aie::detail::vector.8"* %retval, metadata !2248, metadata !DIExpression()), !dbg !2385
  call addrspace(1) void @_ZN3aie6detail6vectorIhLj64EEC2Ev(%"class.aie::detail::vector.8"* nonnull dereferenceable(64) %custom_type.tmp) #26, !dbg !2385
  %1 = load %"class.aie::detail::vector.8", %"class.aie::detail::vector.8"* %custom_type.tmp, align 32, !dbg !2385, !tbaa !1679
  store %"class.aie::detail::vector.8" %1, %"class.aie::detail::vector.8"* %retval, align 32, !dbg !2385, !tbaa !1679
  store %"class.std::__2::tuple" undef, %"class.std::__2::tuple"* %0, align 32, !dbg !2386
  %2 = bitcast %"class.std::__2::tuple"* %0 to i8*, !dbg !2386
  call addrspace(1) void @llvm.lifetime.start.p0i8(i64 128, i8* %2) #30, !dbg !2386
  call addrspace(1) void @llvm.dbg.declare(metadata %"class.std::__2::tuple"* %0, metadata !2249, metadata !DIExpression()), !dbg !2387
  call addrspace(1) void @_ZNK3aie6detail6vectorIsLj64EE5splitILj32EEEDav(%"class.std::__2::tuple"* sret(%"class.std::__2::tuple") align 32 %0, %"class.aie::detail::vector.14"* nonnull dereferenceable(128) %this) #26, !dbg !2388
  call addrspace(1) void @llvm.dbg.value(metadata %"class.aie::detail::vector.11"* undef, metadata !2381, metadata !DIExpression()), !dbg !2389
  %call = call nonnull align 32 dereferenceable(64) addrspace(1) %"class.aie::detail::vector.11"* @_ZNSt3__23getILj0EJN3aie6detail6vectorIsLj32EEES4_EEEONS_13tuple_elementIXT_ENS_5tupleIJDpT0_EEEE4typeEOS9_(%"class.std::__2::tuple"* nonnull align 32 dereferenceable(128) %0) #31, !dbg !2390
  call addrspace(1) void @llvm.dbg.value(metadata %"class.aie::detail::vector.11"* %call, metadata !2381, metadata !DIExpression()), !dbg !2389
  call addrspace(1) void @llvm.dbg.value(metadata %"class.aie::detail::vector.11"* undef, metadata !2383, metadata !DIExpression()), !dbg !2389
  %call2 = call nonnull align 32 dereferenceable(64) addrspace(1) %"class.aie::detail::vector.11"* @_ZNSt3__23getILj1EJN3aie6detail6vectorIsLj32EEES4_EEEONS_13tuple_elementIXT_ENS_5tupleIJDpT0_EEEE4typeEOS9_(%"class.std::__2::tuple"* nonnull align 32 dereferenceable(128) %0) #31, !dbg !2391
  call addrspace(1) void @llvm.dbg.value(metadata %"class.aie::detail::vector.11"* %call2, metadata !2383, metadata !DIExpression()), !dbg !2389
  %3 = bitcast %"class.aie::detail::vector.35"* %ref.tmp to i8*, !dbg !2392
  call addrspace(1) void @llvm.lifetime.start.p0i8(i64 32, i8* %3) #30, !dbg !2392
  %call3 = call addrspace(1) %"class.aie::detail::vector.35" @_ZNK3aie6detail6vectorIsLj32EE4packIhEENS1_IT_Lj32EEEv(%"class.aie::detail::vector.11"* nonnull dereferenceable(64) %call) #26, !dbg !2393
  %4 = getelementptr inbounds %"class.aie::detail::vector.35", %"class.aie::detail::vector.35"* %ref.tmp, i32 0, i32 0, !dbg !2393
  %5 = extractvalue %"class.aie::detail::vector.35" %call3, 0, !dbg !2393
  store %struct.v32uint8 %5, %struct.v32uint8* %4, align 32, !dbg !2393
  %6 = bitcast %"class.aie::detail::vector.35"* %ref.tmp4 to i8*, !dbg !2394
  call addrspace(1) void @llvm.lifetime.start.p0i8(i64 32, i8* %6) #30, !dbg !2394
  %call5 = call addrspace(1) %"class.aie::detail::vector.35" @_ZNK3aie6detail6vectorIsLj32EE4packIhEENS1_IT_Lj32EEEv(%"class.aie::detail::vector.11"* nonnull dereferenceable(64) %call2) #26, !dbg !2395
  %7 = getelementptr inbounds %"class.aie::detail::vector.35", %"class.aie::detail::vector.35"* %ref.tmp4, i32 0, i32 0, !dbg !2395
  %8 = extractvalue %"class.aie::detail::vector.35" %call5, 0, !dbg !2395
  store %struct.v32uint8 %8, %struct.v32uint8* %7, align 32, !dbg !2395
  %call6 = call nonnull align 32 dereferenceable(64) addrspace(1) %"class.aie::detail::vector.8"* @_ZN3aie6detail6vectorIhLj64EE7upd_allIJNS1_IhLj32EEES4_EEERS2_DpOT_(%"class.aie::detail::vector.8"* nonnull dereferenceable(64) %retval, %"class.aie::detail::vector.35"* nonnull align 32 dereferenceable(32) %ref.tmp, %"class.aie::detail::vector.35"* nonnull align 32 dereferenceable(32) %ref.tmp4) #26, !dbg !2396
  %9 = bitcast %"class.aie::detail::vector.35"* %ref.tmp4 to i8*, !dbg !2397
  call addrspace(1) void @llvm.lifetime.end.p0i8(i64 32, i8* %9) #30, !dbg !2397
  %10 = bitcast %"class.aie::detail::vector.35"* %ref.tmp to i8*, !dbg !2397
  call addrspace(1) void @llvm.lifetime.end.p0i8(i64 32, i8* %10) #30, !dbg !2397
  %11 = bitcast %"class.std::__2::tuple"* %0 to i8*, !dbg !2398
  call addrspace(1) void @llvm.lifetime.end.p0i8(i64 128, i8* %11) #30, !dbg !2398
  %12 = load %"class.aie::detail::vector.8", %"class.aie::detail::vector.8"* %retval, align 32, !dbg !2399
  ret %"class.aie::detail::vector.8" %12, !dbg !2399
}

; Function Attrs: alwaysinline nounwind
define linkonce_odr dso_local void @_ZN3aie6detail6vectorIhLj64EEC2Ev(%"class.aie::detail::vector.8"* nonnull dereferenceable(64) %this) unnamed_addr addrspace(1) #11 comdat align 2 !dbg !2400 {
entry:
  call addrspace(1) void @llvm.dbg.value(metadata %"class.aie::detail::vector.8"* %this, metadata !2402, metadata !DIExpression()), !dbg !2404
  %data = getelementptr inbounds %"class.aie::detail::vector.8", %"class.aie::detail::vector.8"* %this, i32 0, i32 0, !dbg !2405
  %call = call addrspace(1) %struct.v64uint8 @_ZN3aie6detail14vector_storageIhLj64EE5undefEv() #26, !dbg !2406
  %0 = getelementptr inbounds %struct.v64uint8, %struct.v64uint8* %data, i32 0, i32 0, !dbg !2406
  %1 = extractvalue %struct.v64uint8 %call, 0, !dbg !2406
  store %struct.ipd.custom_type.v64int8.v64int8 %1, %struct.ipd.custom_type.v64int8.v64int8* %0, align 32, !dbg !2406
  ret void, !dbg !2407
}

; Function Attrs: alwaysinline nounwind mustprogress
define linkonce_odr dso_local void @_ZNK3aie6detail6vectorIsLj64EE5splitILj32EEEDav(%"class.std::__2::tuple"* noalias sret(%"class.std::__2::tuple") align 32 %agg.result, %"class.aie::detail::vector.14"* nonnull dereferenceable(128) %this) addrspace(1) #9 comdat align 2 !dbg !2408 {
entry:
  %ref.tmp = alloca %"struct.std::__2::integer_sequence", align 1
  call addrspace(1) void @llvm.dbg.value(metadata %"class.aie::detail::vector.14"* %this, metadata !2418, metadata !DIExpression()), !dbg !2420
  call addrspace(1) void @llvm.dbg.value(metadata i32 undef, metadata !2419, metadata !DIExpression()), !dbg !2420
  call addrspace(1) void @llvm.dbg.value(metadata i32 512, metadata !2419, metadata !DIExpression()), !dbg !2420
  %0 = bitcast %"struct.std::__2::integer_sequence"* %ref.tmp to i8*, !dbg !2421
  call addrspace(1) void @llvm.lifetime.start.p0i8(i64 1, i8* %0) #30, !dbg !2421
  call addrspace(1) void @_ZNK3aie6detail6vectorIsLj64EE12split_helperILj32EJLj0ELj1EEEEDaONSt3__216integer_sequenceIjJXspT0_EEEE(%"class.std::__2::tuple"* sret(%"class.std::__2::tuple") align 32 %agg.result, %"class.aie::detail::vector.14"* nonnull dereferenceable(128) %this, %"struct.std::__2::integer_sequence"* nonnull align 1 dereferenceable(1) %ref.tmp) #26, !dbg !2422
  %1 = bitcast %"struct.std::__2::integer_sequence"* %ref.tmp to i8*, !dbg !2423
  call addrspace(1) void @llvm.lifetime.end.p0i8(i64 1, i8* %1) #30, !dbg !2423
  ret void, !dbg !2424
}

; Function Attrs: alwaysinline nounwind mustprogress
define linkonce_odr hidden nonnull align 32 dereferenceable(64) %"class.aie::detail::vector.11"* @_ZNSt3__23getILj0EJN3aie6detail6vectorIsLj32EEES4_EEEONS_13tuple_elementIXT_ENS_5tupleIJDpT0_EEEE4typeEOS9_(%"class.std::__2::tuple"* nonnull align 32 dereferenceable(128) %__t) addrspace(1) #9 comdat !dbg !2425 {
entry:
  call addrspace(1) void @llvm.dbg.value(metadata %"class.std::__2::tuple"* %__t, metadata !2429, metadata !DIExpression()), !dbg !2431
  %__base_ = getelementptr inbounds %"class.std::__2::tuple", %"class.std::__2::tuple"* %__t, i32 0, i32 0, !dbg !2432
  %0 = bitcast %"struct.std::__2::__tuple_impl"* %__base_ to %"class.std::__2::__tuple_leaf"*, !dbg !2433
  %call = call nonnull align 32 dereferenceable(64) addrspace(1) %"class.aie::detail::vector.11"* @_ZNSt3__212__tuple_leafILj0EN3aie6detail6vectorIsLj32EEELb0EE3getEv(%"class.std::__2::__tuple_leaf"* nonnull dereferenceable(64) %0) #31, !dbg !2434
  ret %"class.aie::detail::vector.11"* %call, !dbg !2435
}

; Function Attrs: alwaysinline nounwind mustprogress
define linkonce_odr hidden nonnull align 32 dereferenceable(64) %"class.aie::detail::vector.11"* @_ZNSt3__23getILj1EJN3aie6detail6vectorIsLj32EEES4_EEEONS_13tuple_elementIXT_ENS_5tupleIJDpT0_EEEE4typeEOS9_(%"class.std::__2::tuple"* nonnull align 32 dereferenceable(128) %__t) addrspace(1) #9 comdat !dbg !2436 {
entry:
  call addrspace(1) void @llvm.dbg.value(metadata %"class.std::__2::tuple"* %__t, metadata !2438, metadata !DIExpression()), !dbg !2440
  %__base_ = getelementptr inbounds %"class.std::__2::tuple", %"class.std::__2::tuple"* %__t, i32 0, i32 0, !dbg !2441
  %0 = bitcast %"struct.std::__2::__tuple_impl"* %__base_ to i8*, !dbg !2442
  %add.ptr = getelementptr inbounds i8, i8* %0, i32 64, !dbg !2442
  %1 = bitcast i8* %add.ptr to %"class.std::__2::__tuple_leaf"*, !dbg !2442
  %call = call nonnull align 32 dereferenceable(64) addrspace(1) %"class.aie::detail::vector.11"* @_ZNSt3__212__tuple_leafILj1EN3aie6detail6vectorIsLj32EEELb0EE3getEv(%"class.std::__2::__tuple_leaf"* nonnull dereferenceable(64) %1) #31, !dbg !2443
  ret %"class.aie::detail::vector.11"* %call, !dbg !2444
}

; Function Attrs: alwaysinline nounwind mustprogress
define linkonce_odr dso_local %"class.aie::detail::vector.35" @_ZNK3aie6detail6vectorIsLj32EE4packIhEENS1_IT_Lj32EEEv(%"class.aie::detail::vector.11"* nonnull dereferenceable(64) %this) addrspace(1) #9 comdat align 2 !dbg !2445 {
entry:
  %retval = alloca %"class.aie::detail::vector.35", align 32
  %custom_type.tmp = alloca %"class.aie::detail::vector.35", align 32
  %tmp = alloca %struct.v32uint8, align 32
  call addrspace(1) void @llvm.dbg.value(metadata %"class.aie::detail::vector.11"* %this, metadata !2450, metadata !DIExpression()), !dbg !2453
  call addrspace(1) void @llvm.dbg.declare(metadata %"class.aie::detail::vector.35"* %retval, metadata !2452, metadata !DIExpression()), !dbg !2454
  call addrspace(1) void @_ZN3aie6detail6vectorIhLj32EEC2Ev(%"class.aie::detail::vector.35"* nonnull dereferenceable(32) %custom_type.tmp) #26, !dbg !2454
  %0 = load %"class.aie::detail::vector.35", %"class.aie::detail::vector.35"* %custom_type.tmp, align 32, !dbg !2454, !tbaa !2455
  store %"class.aie::detail::vector.35" %0, %"class.aie::detail::vector.35"* %retval, align 32, !dbg !2454, !tbaa !2455
  %data = getelementptr inbounds %"class.aie::detail::vector.35", %"class.aie::detail::vector.35"* %retval, i32 0, i32 0, !dbg !2458
  %1 = bitcast %struct.v32uint8* %tmp to i8*, !dbg !2462
  call addrspace(1) void @llvm.lifetime.start.p0i8(i64 32, i8* %1) #30, !dbg !2462
  %data2 = getelementptr inbounds %"class.aie::detail::vector.11", %"class.aie::detail::vector.11"* %this, i32 0, i32 0, !dbg !2463
  %2 = load %struct.v32int16, %struct.v32int16* %data2, align 32, !dbg !2462, !tbaa !2464
  %call = call addrspace(1) %struct.v32uint8 @_Z5upack8v32int16(%struct.v32int16 %2) #33, !dbg !2462
  %3 = getelementptr inbounds %struct.v32uint8, %struct.v32uint8* %tmp, i32 0, i32 0, !dbg !2462
  %4 = extractvalue %struct.v32uint8 %call, 0, !dbg !2462
  store %struct.ipd.custom_type.v32int8.v32int8 %4, %struct.ipd.custom_type.v32int8.v32int8* %3, align 32, !dbg !2462
  %5 = load %struct.v32uint8, %struct.v32uint8* %tmp, align 32, !dbg !2462, !tbaa !2465
  store %struct.v32uint8 %5, %struct.v32uint8* %data, align 32, !dbg !2462, !tbaa !2465
  %6 = bitcast %struct.v32uint8* %tmp to i8*, !dbg !2462
  call addrspace(1) void @llvm.lifetime.end.p0i8(i64 32, i8* %6) #30, !dbg !2462
  %7 = load %"class.aie::detail::vector.35", %"class.aie::detail::vector.35"* %retval, align 32, !dbg !2466
  ret %"class.aie::detail::vector.35" %7, !dbg !2466
}

; Function Attrs: alwaysinline nounwind mustprogress
define linkonce_odr dso_local nonnull align 32 dereferenceable(64) %"class.aie::detail::vector.8"* @_ZN3aie6detail6vectorIhLj64EE7upd_allIJNS1_IhLj32EEES4_EEERS2_DpOT_(%"class.aie::detail::vector.8"* nonnull dereferenceable(64) %this, %"class.aie::detail::vector.35"* nonnull align 32 dereferenceable(32) %subvectors, %"class.aie::detail::vector.35"* nonnull align 32 dereferenceable(32) %subvectors1) addrspace(1) #9 comdat align 2 !dbg !2467 {
entry:
  %tmp = alloca %struct.v64uint8, align 32
  call addrspace(1) void @llvm.dbg.value(metadata %"class.aie::detail::vector.8"* %this, metadata !2474, metadata !DIExpression()), !dbg !2480
  call addrspace(1) void @llvm.dbg.value(metadata %"class.aie::detail::vector.35"* %subvectors, metadata !2475, metadata !DIExpression()), !dbg !2480
  call addrspace(1) void @llvm.dbg.value(metadata %"class.aie::detail::vector.35"* %subvectors1, metadata !2476, metadata !DIExpression()), !dbg !2480
  call addrspace(1) void @llvm.dbg.value(metadata i32 undef, metadata !2477, metadata !DIExpression()), !dbg !2480
  call addrspace(1) void @llvm.dbg.value(metadata i32 2, metadata !2477, metadata !DIExpression()), !dbg !2480
  call addrspace(1) void @llvm.dbg.value(metadata i32 undef, metadata !2478, metadata !DIExpression()), !dbg !2480
  call addrspace(1) void @llvm.dbg.value(metadata i32 256, metadata !2478, metadata !DIExpression()), !dbg !2480
  call addrspace(1) void @llvm.dbg.value(metadata i32 undef, metadata !2479, metadata !DIExpression()), !dbg !2480
  call addrspace(1) void @llvm.dbg.value(metadata i32 32, metadata !2479, metadata !DIExpression()), !dbg !2480
  %data = getelementptr inbounds %"class.aie::detail::vector.8", %"class.aie::detail::vector.8"* %this, i32 0, i32 0, !dbg !2481
  %0 = bitcast %struct.v64uint8* %tmp to i8*, !dbg !2484
  call addrspace(1) void @llvm.lifetime.start.p0i8(i64 64, i8* %0) #30, !dbg !2484
  %call = call nonnull align 32 dereferenceable(32) addrspace(1) %"class.aie::detail::vector.35"* @_ZNSt3__27forwardIN3aie6detail6vectorIhLj32EEEEEOT_RNS_16remove_referenceIS5_E4typeE(%"class.aie::detail::vector.35"* nonnull align 32 dereferenceable(32) %subvectors) #31, !dbg !2485
  %data4 = getelementptr inbounds %"class.aie::detail::vector.35", %"class.aie::detail::vector.35"* %call, i32 0, i32 0, !dbg !2486
  %call5 = call nonnull align 32 dereferenceable(32) addrspace(1) %"class.aie::detail::vector.35"* @_ZNSt3__27forwardIN3aie6detail6vectorIhLj32EEEEEOT_RNS_16remove_referenceIS5_E4typeE(%"class.aie::detail::vector.35"* nonnull align 32 dereferenceable(32) %subvectors1) #31, !dbg !2485
  %data6 = getelementptr inbounds %"class.aie::detail::vector.35", %"class.aie::detail::vector.35"* %call5, i32 0, i32 0, !dbg !2486
  %1 = load %struct.v32uint8, %struct.v32uint8* %data4, align 32, !dbg !2484, !tbaa !2487
  %2 = load %struct.v32uint8, %struct.v32uint8* %data6, align 32, !dbg !2484, !tbaa !2487
  %call7 = call addrspace(1) %struct.v64uint8 @_Z6concat8v32uint8S_(%struct.v32uint8 %1, %struct.v32uint8 %2) #26, !dbg !2484
  %3 = getelementptr inbounds %struct.v64uint8, %struct.v64uint8* %tmp, i32 0, i32 0, !dbg !2484
  %4 = extractvalue %struct.v64uint8 %call7, 0, !dbg !2484
  store %struct.ipd.custom_type.v64int8.v64int8 %4, %struct.ipd.custom_type.v64int8.v64int8* %3, align 32, !dbg !2484
  %5 = load %struct.v64uint8, %struct.v64uint8* %tmp, align 32, !dbg !2484, !tbaa !1689
  store %struct.v64uint8 %5, %struct.v64uint8* %data, align 32, !dbg !2484, !tbaa !1689
  %6 = bitcast %struct.v64uint8* %tmp to i8*, !dbg !2484
  call addrspace(1) void @llvm.lifetime.end.p0i8(i64 64, i8* %6) #30, !dbg !2484
  ret %"class.aie::detail::vector.8"* %this, !dbg !2488
}

; Function Attrs: alwaysinline nounwind mustprogress
define linkonce_odr hidden nonnull align 32 dereferenceable(32) %"class.aie::detail::vector.35"* @_ZNSt3__27forwardIN3aie6detail6vectorIhLj32EEEEEOT_RNS_16remove_referenceIS5_E4typeE(%"class.aie::detail::vector.35"* nonnull align 32 dereferenceable(32) %__t) addrspace(1) #9 comdat !dbg !2489 {
entry:
  call addrspace(1) void @llvm.dbg.value(metadata %"class.aie::detail::vector.35"* %__t, metadata !2493, metadata !DIExpression()), !dbg !2496
  ret %"class.aie::detail::vector.35"* %__t, !dbg !2497
}

; Function Attrs: alwaysinline nounwind mustprogress
define linkonce_odr dso_local %struct.v64uint8 @_Z6concat8v32uint8S_(%struct.v32uint8 %a0.coerce, %struct.v32uint8 %a1.coerce) addrspace(1) #9 comdat {
entry:
  %retval = alloca %struct.v64uint8, align 32
  %call = call x86_regcallcc addrspace(1) %struct.v64uint8 @__regcall3__chessintr_v64uint8_concat_v32uint8_v32uint8(%struct.v32uint8 %a0.coerce, %struct.v32uint8 %a1.coerce) #34
  %0 = getelementptr inbounds %struct.v64uint8, %struct.v64uint8* %retval, i32 0, i32 0
  %1 = extractvalue %struct.v64uint8 %call, 0
  store %struct.ipd.custom_type.v64int8.v64int8 %1, %struct.ipd.custom_type.v64int8.v64int8* %0, align 32
  %2 = load %struct.v64uint8, %struct.v64uint8* %retval, align 32
  ret %struct.v64uint8 %2
}

; Function Attrs: nounwind readnone willreturn
declare dso_local x86_regcallcc %struct.v64uint8 @__regcall3__chessintr_v64uint8_concat_v32uint8_v32uint8(%struct.v32uint8, %struct.v32uint8) addrspace(1) #13

; Function Attrs: alwaysinline nounwind
define linkonce_odr dso_local void @_ZN3aie6detail6vectorIhLj32EEC2Ev(%"class.aie::detail::vector.35"* nonnull dereferenceable(32) %this) unnamed_addr addrspace(1) #11 comdat align 2 !dbg !2498 {
entry:
  call addrspace(1) void @llvm.dbg.value(metadata %"class.aie::detail::vector.35"* %this, metadata !2500, metadata !DIExpression()), !dbg !2502
  %data = getelementptr inbounds %"class.aie::detail::vector.35", %"class.aie::detail::vector.35"* %this, i32 0, i32 0, !dbg !2503
  %call = call addrspace(1) %struct.v32uint8 @_ZN3aie6detail14vector_storageIhLj32EE5undefEv() #26, !dbg !2504
  %0 = getelementptr inbounds %struct.v32uint8, %struct.v32uint8* %data, i32 0, i32 0, !dbg !2504
  %1 = extractvalue %struct.v32uint8 %call, 0, !dbg !2504
  store %struct.ipd.custom_type.v32int8.v32int8 %1, %struct.ipd.custom_type.v32int8.v32int8* %0, align 32, !dbg !2504
  ret void, !dbg !2505
}

; Function Attrs: alwaysinline nounwind mustprogress
define linkonce_odr dso_local %struct.v32uint8 @_Z5upack8v32int16(%struct.v32int16 %vec.coerce) addrspace(1) #19 comdat {
entry:
  %retval = alloca %struct.v32uint8, align 32
  %custom_type.tmp = alloca %struct.ipd.custom_type.uint1_t.uint1_t, align 4
  call addrspace(1) void @_ZN7uint1_tC2Ei(%struct.ipd.custom_type.uint1_t.uint1_t* nonnull dereferenceable(1) %custom_type.tmp, i32 0) #26
  %0 = load %struct.ipd.custom_type.uint1_t.uint1_t, %struct.ipd.custom_type.uint1_t.uint1_t* %custom_type.tmp, align 4, !tbaa !2506
  %call = call addrspace(1) %struct.ipd.custom_type.uint1_t.uint1_t @_Z12get_sat_implv() #35
  %call2 = call addrspace(1) %struct.v32uint8 @_ZN12me_primitive5upackE8v32int167uint1_tS1_(%struct.v32int16 %vec.coerce, %struct.ipd.custom_type.uint1_t.uint1_t %0, %struct.ipd.custom_type.uint1_t.uint1_t %call) #28
  %1 = getelementptr inbounds %struct.v32uint8, %struct.v32uint8* %retval, i32 0, i32 0
  %2 = extractvalue %struct.v32uint8 %call2, 0
  store %struct.ipd.custom_type.v32int8.v32int8 %2, %struct.ipd.custom_type.v32int8.v32int8* %1, align 32
  %3 = load %struct.v32uint8, %struct.v32uint8* %retval, align 32
  ret %struct.v32uint8 %3
}

; Function Attrs: alwaysinline nounwind
define linkonce_odr dso_local void @_ZN7uint1_tC2Ei(%struct.ipd.custom_type.uint1_t.uint1_t* nonnull dereferenceable(1) %this, i32 %a) unnamed_addr addrspace(1) #11 comdat align 2 {
entry:
  %0 = bitcast %struct.ipd.custom_type.uint1_t.uint1_t* %this to i8*
  %bf.load = load i8, i8* %0, align 4
  %bf.clear = and i8 %bf.load, -2
  store i8 %bf.clear, i8* %0, align 4
  %1 = call addrspace(1) %struct.ipd.custom_type.uint1_t.uint1_t @llvm.chess.init.customint.s_struct.ipd.custom_type.uint1_t.uint1_ts.i32.p1f_s_struct.ipd.custom_type.uint1_t.uint1_tsi32f(%struct.ipd.custom_type.uint1_t.uint1_t undef, i32 %a, i32 1, i32 32, i1 true, i32 0, %struct.ipd.custom_type.uint1_t.uint1_t (i32) addrspace(1)* @__regcall3__chessintr_uint1_t_uint1_t___sint)
  store %struct.ipd.custom_type.uint1_t.uint1_t %1, %struct.ipd.custom_type.uint1_t.uint1_t* %this, align 4
  ret void
}

; Function Attrs: alwaysinline nounwind mustprogress
define linkonce_odr dso_local %struct.ipd.custom_type.uint1_t.uint1_t @_Z12get_sat_implv() addrspace(1) #20 comdat {
entry:
  %0 = load volatile %struct.ipd.custom_type.uint1_t.uint1_t, %struct.ipd.custom_type.uint1_t.uint1_t* !register !1064, align 4, !tbaa !2506, !chess_protect_access !2508
  ret %struct.ipd.custom_type.uint1_t.uint1_t %0
}

; Function Attrs: alwaysinline nounwind mustprogress
define linkonce_odr dso_local %struct.v32uint8 @_ZN12me_primitive5upackE8v32int167uint1_tS1_(%struct.v32int16 %a0.coerce, %struct.ipd.custom_type.uint1_t.uint1_t %a1.coerce, %struct.ipd.custom_type.uint1_t.uint1_t %a2.coerce) addrspace(1) #10 comdat {
entry:
  %retval = alloca %struct.v32uint8, align 32
  %call = call x86_regcallcc addrspace(1) %struct.v32uint8 @__regcall3__chessintr_v32uint8_upack_v32int16_uint1_t_uint1_t(%struct.v32int16 %a0.coerce, %struct.ipd.custom_type.uint1_t.uint1_t %a1.coerce, %struct.ipd.custom_type.uint1_t.uint1_t %a2.coerce) #34
  %0 = getelementptr inbounds %struct.v32uint8, %struct.v32uint8* %retval, i32 0, i32 0
  %1 = extractvalue %struct.v32uint8 %call, 0
  store %struct.ipd.custom_type.v32int8.v32int8 %1, %struct.ipd.custom_type.v32int8.v32int8* %0, align 32
  %2 = load %struct.v32uint8, %struct.v32uint8* %retval, align 32
  ret %struct.v32uint8 %2
}

; Function Attrs: nounwind readnone willreturn
declare dso_local x86_regcallcc %struct.v32uint8 @__regcall3__chessintr_v32uint8_upack_v32int16_uint1_t_uint1_t(%struct.v32int16, %struct.ipd.custom_type.uint1_t.uint1_t, %struct.ipd.custom_type.uint1_t.uint1_t) addrspace(1) #13

; Function Attrs: nounwind readnone willreturn
declare dso_local x86_regcallcc %struct.ipd.custom_type.uint1_t.uint1_t @__regcall3__chessintr_uint1_t_uint1_t___sint(i32 signext) addrspace(1) #13

; Function Attrs: nounwind readnone willreturn
declare %struct.ipd.custom_type.uint1_t.uint1_t @llvm.chess.init.customint.s_struct.ipd.custom_type.uint1_t.uint1_ts.i32.p1f_s_struct.ipd.custom_type.uint1_t.uint1_tsi32f(%struct.ipd.custom_type.uint1_t.uint1_t, i32, i32, i32, i1, i32, %struct.ipd.custom_type.uint1_t.uint1_t (i32) addrspace(1)*) addrspace(1) #14

; Function Attrs: alwaysinline nounwind mustprogress
define linkonce_odr dso_local %struct.v32uint8 @_ZN3aie6detail14vector_storageIhLj32EE5undefEv() addrspace(1) #9 comdat align 2 !dbg !2509 {
entry:
  %retval = alloca %struct.v32uint8, align 32
  %call = call addrspace(1) %struct.v32uint8 @_Z14undef_v32uint8v() #26, !dbg !2510
  %0 = getelementptr inbounds %struct.v32uint8, %struct.v32uint8* %retval, i32 0, i32 0, !dbg !2510
  %1 = extractvalue %struct.v32uint8 %call, 0, !dbg !2510
  store %struct.ipd.custom_type.v32int8.v32int8 %1, %struct.ipd.custom_type.v32int8.v32int8* %0, align 32, !dbg !2510
  %2 = load %struct.v32uint8, %struct.v32uint8* %retval, align 32, !dbg !2511
  ret %struct.v32uint8 %2, !dbg !2511
}

; Function Attrs: alwaysinline nounwind mustprogress
define linkonce_odr dso_local %struct.v32uint8 @_Z14undef_v32uint8v() addrspace(1) #9 comdat {
entry:
  %retval = alloca %struct.v32uint8, align 32
  %call = call x86_regcallcc addrspace(1) %struct.v32uint8 @__regcall3__chessintr_v32uint8_undef_v32uint8() #34
  %0 = getelementptr inbounds %struct.v32uint8, %struct.v32uint8* %retval, i32 0, i32 0
  %1 = extractvalue %struct.v32uint8 %call, 0
  store %struct.ipd.custom_type.v32int8.v32int8 %1, %struct.ipd.custom_type.v32int8.v32int8* %0, align 32
  %2 = load %struct.v32uint8, %struct.v32uint8* %retval, align 32
  ret %struct.v32uint8 %2
}

; Function Attrs: nounwind readnone willreturn
declare dso_local x86_regcallcc %struct.v32uint8 @__regcall3__chessintr_v32uint8_undef_v32uint8() addrspace(1) #13

; Function Attrs: alwaysinline nounwind mustprogress
define linkonce_odr hidden nonnull align 32 dereferenceable(64) %"class.aie::detail::vector.11"* @_ZNSt3__212__tuple_leafILj1EN3aie6detail6vectorIsLj32EEELb0EE3getEv(%"class.std::__2::__tuple_leaf"* nonnull dereferenceable(64) %this) addrspace(1) #9 comdat align 2 !dbg !2512 {
entry:
  call addrspace(1) void @llvm.dbg.value(metadata %"class.std::__2::__tuple_leaf"* %this, metadata !2514, metadata !DIExpression()), !dbg !2516
  %__value_ = getelementptr inbounds %"class.std::__2::__tuple_leaf", %"class.std::__2::__tuple_leaf"* %this, i32 0, i32 0, !dbg !2517
  ret %"class.aie::detail::vector.11"* %__value_, !dbg !2518
}

; Function Attrs: alwaysinline nounwind mustprogress
define linkonce_odr hidden nonnull align 32 dereferenceable(64) %"class.aie::detail::vector.11"* @_ZNSt3__212__tuple_leafILj0EN3aie6detail6vectorIsLj32EEELb0EE3getEv(%"class.std::__2::__tuple_leaf"* nonnull dereferenceable(64) %this) addrspace(1) #9 comdat align 2 !dbg !2519 {
entry:
  call addrspace(1) void @llvm.dbg.value(metadata %"class.std::__2::__tuple_leaf"* %this, metadata !2521, metadata !DIExpression()), !dbg !2523
  %__value_ = getelementptr inbounds %"class.std::__2::__tuple_leaf", %"class.std::__2::__tuple_leaf"* %this, i32 0, i32 0, !dbg !2524
  ret %"class.aie::detail::vector.11"* %__value_, !dbg !2525
}

; Function Attrs: alwaysinline nounwind mustprogress
define linkonce_odr dso_local void @_ZNK3aie6detail6vectorIsLj64EE12split_helperILj32EJLj0ELj1EEEEDaONSt3__216integer_sequenceIjJXspT0_EEEE(%"class.std::__2::tuple"* noalias sret(%"class.std::__2::tuple") align 32 %agg.result, %"class.aie::detail::vector.14"* nonnull dereferenceable(128) %this, %"struct.std::__2::integer_sequence"* nonnull align 1 dereferenceable(1) %0) addrspace(1) #9 comdat align 2 !dbg !2526 {
entry:
  %ref.tmp = alloca %"class.aie::detail::vector.11", align 32
  %ref.tmp2 = alloca %"class.aie::detail::vector.11", align 32
  call addrspace(1) void @llvm.dbg.value(metadata %"class.aie::detail::vector.14"* %this, metadata !2544, metadata !DIExpression()), !dbg !2546
  call addrspace(1) void @llvm.dbg.value(metadata %"struct.std::__2::integer_sequence"* %0, metadata !2545, metadata !DIExpression()), !dbg !2546
  %1 = bitcast %"class.aie::detail::vector.11"* %ref.tmp to i8*, !dbg !2547
  call addrspace(1) void @llvm.lifetime.start.p0i8(i64 64, i8* %1) #30, !dbg !2547
  %call = call addrspace(1) %"class.aie::detail::vector.11" @_ZNK3aie6detail6vectorIsLj64EE7extractILj32EEENS1_IsXT_EEEj(%"class.aie::detail::vector.14"* nonnull dereferenceable(128) %this, i32 0) #26, !dbg !2547
  %2 = getelementptr inbounds %"class.aie::detail::vector.11", %"class.aie::detail::vector.11"* %ref.tmp, i32 0, i32 0, !dbg !2547
  %3 = extractvalue %"class.aie::detail::vector.11" %call, 0, !dbg !2547
  store %struct.v32int16 %3, %struct.v32int16* %2, align 32, !dbg !2547
  %4 = bitcast %"class.aie::detail::vector.11"* %ref.tmp2 to i8*, !dbg !2547
  call addrspace(1) void @llvm.lifetime.start.p0i8(i64 64, i8* %4) #30, !dbg !2547
  %call3 = call addrspace(1) %"class.aie::detail::vector.11" @_ZNK3aie6detail6vectorIsLj64EE7extractILj32EEENS1_IsXT_EEEj(%"class.aie::detail::vector.14"* nonnull dereferenceable(128) %this, i32 1) #26, !dbg !2547
  %5 = getelementptr inbounds %"class.aie::detail::vector.11", %"class.aie::detail::vector.11"* %ref.tmp2, i32 0, i32 0, !dbg !2547
  %6 = extractvalue %"class.aie::detail::vector.11" %call3, 0, !dbg !2547
  store %struct.v32int16 %6, %struct.v32int16* %5, align 32, !dbg !2547
  call addrspace(1) void @_ZNSt3__210make_tupleIJN3aie6detail6vectorIsLj32EEES4_EEENS_5tupleIJDpNS_18__unwrap_ref_decayIT_E4typeEEEEDpOS7_(%"class.std::__2::tuple"* sret(%"class.std::__2::tuple") align 32 %agg.result, %"class.aie::detail::vector.11"* nonnull align 32 dereferenceable(64) %ref.tmp, %"class.aie::detail::vector.11"* nonnull align 32 dereferenceable(64) %ref.tmp2) #26, !dbg !2548
  %7 = bitcast %"class.aie::detail::vector.11"* %ref.tmp2 to i8*, !dbg !2549
  call addrspace(1) void @llvm.lifetime.end.p0i8(i64 64, i8* %7) #30, !dbg !2549
  %8 = bitcast %"class.aie::detail::vector.11"* %ref.tmp to i8*, !dbg !2549
  call addrspace(1) void @llvm.lifetime.end.p0i8(i64 64, i8* %8) #30, !dbg !2549
  ret void, !dbg !2549
}

; Function Attrs: alwaysinline nounwind mustprogress
define linkonce_odr dso_local %"class.aie::detail::vector.11" @_ZNK3aie6detail6vectorIsLj64EE7extractILj32EEENS1_IsXT_EEEj(%"class.aie::detail::vector.14"* nonnull dereferenceable(128) %this, i32 %idx) addrspace(1) #9 comdat align 2 !dbg !2550 {
entry:
  %retval = alloca %"class.aie::detail::vector.11", align 32
  %custom_type.tmp = alloca %"class.aie::detail::vector.11", align 32
  %custom_type.tmp8 = alloca %"class.aie::detail::vector.11", align 32
  call addrspace(1) void @llvm.dbg.value(metadata %"class.aie::detail::vector.14"* %this, metadata !2555, metadata !DIExpression()), !dbg !2564
  call addrspace(1) void @llvm.dbg.value(metadata i32 %idx, metadata !2556, metadata !DIExpression()), !dbg !2564
  %cmp = icmp ult i32 %idx, 2, !dbg !2565
  %0 = call addrspace(1) i1 @llvm.is.constant.i1(i1 %cmp), !dbg !2565
  br i1 %0, label %do.body, label %if.end4, !dbg !2567

do.body:                                          ; preds = %entry
  %cmp2 = icmp ult i32 %idx, 2, !dbg !2568
  %1 = call addrspace(1) i1 @llvm.chess_manifest(i1 %cmp2), !dbg !2568
  br i1 %1, label %if.end4, label %if.then3, !dbg !2572

if.then3:                                         ; preds = %do.body
  call addrspace(1) void @llvm.chess_error(metadata !1677), !dbg !2568
  unreachable, !dbg !2568

if.end4:                                          ; preds = %do.body, %entry
  %cmp5 = icmp ult i32 %idx, 2, !dbg !2567
  call addrspace(1) void @llvm.assume(i1 %cmp5), !dbg !2567
  call addrspace(1) void @llvm.dbg.value(metadata i32 undef, metadata !2557, metadata !DIExpression()), !dbg !2564
  call addrspace(1) void @llvm.dbg.value(metadata i32 512, metadata !2557, metadata !DIExpression()), !dbg !2564
  call addrspace(1) void @llvm.dbg.declare(metadata %"class.aie::detail::vector.11"* %retval, metadata !2558, metadata !DIExpression()), !dbg !2573
  call addrspace(1) void @_ZN3aie6detail6vectorIsLj32EEC2Ev(%"class.aie::detail::vector.11"* nonnull dereferenceable(64) %custom_type.tmp) #26, !dbg !2573
  %2 = load %"class.aie::detail::vector.11", %"class.aie::detail::vector.11"* %custom_type.tmp, align 32, !dbg !2573, !tbaa !2188
  store %"class.aie::detail::vector.11" %2, %"class.aie::detail::vector.11"* %retval, align 32, !dbg !2573, !tbaa !2188
  %3 = call addrspace(1) i1 @llvm.is.constant.i32(i32 %idx), !dbg !2574
  br i1 %3, label %if.then6, label %if.else, !dbg !2575

if.then6:                                         ; preds = %if.end4
  %data = getelementptr inbounds %"class.aie::detail::vector.11", %"class.aie::detail::vector.11"* %retval, i32 0, i32 0, !dbg !2576
  %data7 = getelementptr inbounds %"class.aie::detail::vector.14", %"class.aie::detail::vector.14"* %this, i32 0, i32 0, !dbg !2581
  %call = call nonnull align 32 dereferenceable(64) addrspace(1) %struct.v32int16* @_ZNKSt3__25arrayI8v32int16Lj2EEixEj(%"struct.std::__2::array.15"* nonnull dereferenceable(128) %data7, i32 %idx) #31, !dbg !2581
  %4 = load %struct.v32int16, %struct.v32int16* %call, align 32, !dbg !2581, !tbaa !1689
  store %struct.v32int16 %4, %struct.v32int16* %data, align 32, !dbg !2581, !tbaa !1689
  br label %cleanup, !dbg !2582

if.else:                                          ; preds = %if.end4
  call addrspace(1) void @llvm.dbg.value(metadata i32 undef, metadata !2561, metadata !DIExpression()), !dbg !2583
  call addrspace(1) void @llvm.dbg.value(metadata i32 8, metadata !2561, metadata !DIExpression()), !dbg !2583
  %data9 = getelementptr inbounds %"class.aie::detail::vector.14", %"class.aie::detail::vector.14"* %this, i32 0, i32 0, !dbg !2584
  %call10 = call nonnull align 32 dereferenceable(64) addrspace(1) %struct.v32int16* @_ZNKSt3__25arrayI8v32int16Lj2EEixEj(%"struct.std::__2::array.15"* nonnull dereferenceable(128) %data9, i32 %idx) #31, !dbg !2584
  %5 = load %struct.v32int16, %struct.v32int16* %call10, align 32, !dbg !2584, !tbaa !1689
  call addrspace(1) void @_ZN3aie6detail6vectorIsLj32EEC2E8v32int16(%"class.aie::detail::vector.11"* nonnull dereferenceable(64) %custom_type.tmp8, %struct.v32int16 %5) #26, !dbg !2584
  %6 = load %"class.aie::detail::vector.11", %"class.aie::detail::vector.11"* %custom_type.tmp8, align 32, !dbg !2584, !tbaa !2188
  store %"class.aie::detail::vector.11" %6, %"class.aie::detail::vector.11"* %retval, align 32, !dbg !2584, !tbaa !2188
  br label %cleanup, !dbg !2587

cleanup:                                          ; preds = %if.else, %if.then6
  %7 = load %"class.aie::detail::vector.11", %"class.aie::detail::vector.11"* %retval, align 32, !dbg !2588
  ret %"class.aie::detail::vector.11" %7, !dbg !2588
}

; Function Attrs: alwaysinline nounwind mustprogress
define linkonce_odr hidden void @_ZNSt3__210make_tupleIJN3aie6detail6vectorIsLj32EEES4_EEENS_5tupleIJDpNS_18__unwrap_ref_decayIT_E4typeEEEEDpOS7_(%"class.std::__2::tuple"* noalias sret(%"class.std::__2::tuple") align 32 %agg.result, %"class.aie::detail::vector.11"* nonnull align 32 dereferenceable(64) %__t, %"class.aie::detail::vector.11"* nonnull align 32 dereferenceable(64) %__t1) addrspace(1) #9 comdat !dbg !2589 {
entry:
  call addrspace(1) void @llvm.dbg.value(metadata %"class.aie::detail::vector.11"* %__t, metadata !2593, metadata !DIExpression()), !dbg !2595
  call addrspace(1) void @llvm.dbg.value(metadata %"class.aie::detail::vector.11"* %__t1, metadata !2594, metadata !DIExpression()), !dbg !2595
  %call = call nonnull align 32 dereferenceable(64) addrspace(1) %"class.aie::detail::vector.11"* @_ZNSt3__27forwardIN3aie6detail6vectorIsLj32EEEEEOT_RNS_16remove_referenceIS5_E4typeE(%"class.aie::detail::vector.11"* nonnull align 32 dereferenceable(64) %__t) #31, !dbg !2596
  %call3 = call nonnull align 32 dereferenceable(64) addrspace(1) %"class.aie::detail::vector.11"* @_ZNSt3__27forwardIN3aie6detail6vectorIsLj32EEEEEOT_RNS_16remove_referenceIS5_E4typeE(%"class.aie::detail::vector.11"* nonnull align 32 dereferenceable(64) %__t1) #31, !dbg !2596
  call addrspace(1) void @_ZNSt3__25tupleIJN3aie6detail6vectorIsLj32EEES4_EEC2IJS4_S4_ELb0ELb0EEEDpOT_(%"class.std::__2::tuple"* nonnull dereferenceable(128) %agg.result, %"class.aie::detail::vector.11"* nonnull align 32 dereferenceable(64) %call, %"class.aie::detail::vector.11"* nonnull align 32 dereferenceable(64) %call3) #31, !dbg !2597
  ret void, !dbg !2598
}

; Function Attrs: alwaysinline nounwind mustprogress
define linkonce_odr hidden nonnull align 32 dereferenceable(64) %"class.aie::detail::vector.11"* @_ZNSt3__27forwardIN3aie6detail6vectorIsLj32EEEEEOT_RNS_16remove_referenceIS5_E4typeE(%"class.aie::detail::vector.11"* nonnull align 32 dereferenceable(64) %__t) addrspace(1) #9 comdat !dbg !2599 {
entry:
  call addrspace(1) void @llvm.dbg.value(metadata %"class.aie::detail::vector.11"* %__t, metadata !2603, metadata !DIExpression()), !dbg !2606
  ret %"class.aie::detail::vector.11"* %__t, !dbg !2607
}

; Function Attrs: alwaysinline nounwind
define linkonce_odr dso_local void @_ZNSt3__25tupleIJN3aie6detail6vectorIsLj32EEES4_EEC2IJS4_S4_ELb0ELb0EEEDpOT_(%"class.std::__2::tuple"* nonnull dereferenceable(128) %this, %"class.aie::detail::vector.11"* nonnull align 32 dereferenceable(64) %__u, %"class.aie::detail::vector.11"* nonnull align 32 dereferenceable(64) %__u1) unnamed_addr addrspace(1) #11 comdat align 2 !dbg !2608 {
entry:
  call addrspace(1) void @llvm.dbg.value(metadata %"class.std::__2::tuple"* %this, metadata !2616, metadata !DIExpression()), !dbg !2620
  call addrspace(1) void @llvm.dbg.value(metadata %"class.aie::detail::vector.11"* %__u, metadata !2618, metadata !DIExpression()), !dbg !2620
  call addrspace(1) void @llvm.dbg.value(metadata %"class.aie::detail::vector.11"* %__u1, metadata !2619, metadata !DIExpression()), !dbg !2620
  %__base_ = getelementptr inbounds %"class.std::__2::tuple", %"class.std::__2::tuple"* %this, i32 0, i32 0, !dbg !2621
  %call = call nonnull align 32 dereferenceable(64) addrspace(1) %"class.aie::detail::vector.11"* @_ZNSt3__27forwardIN3aie6detail6vectorIsLj32EEEEEOT_RNS_16remove_referenceIS5_E4typeE(%"class.aie::detail::vector.11"* nonnull align 32 dereferenceable(64) %__u) #31, !dbg !2622
  %call7 = call nonnull align 32 dereferenceable(64) addrspace(1) %"class.aie::detail::vector.11"* @_ZNSt3__27forwardIN3aie6detail6vectorIsLj32EEEEEOT_RNS_16remove_referenceIS5_E4typeE(%"class.aie::detail::vector.11"* nonnull align 32 dereferenceable(64) %__u1) #31, !dbg !2622
  call addrspace(1) void @_ZNSt3__212__tuple_implINS_15__tuple_indicesIJLj0ELj1EEEEJN3aie6detail6vectorIsLj32EEES6_EEC2IJLj0ELj1EEJS6_S6_EJEJEJS6_S6_EEENS1_IJXspT_EEEENS_13__tuple_typesIJDpT0_EEENS1_IJXspT1_EEEENSA_IJDpT2_EEEDpOT3_(%"struct.std::__2::__tuple_impl"* nonnull dereferenceable(128) %__base_, %"struct.std::__2::__tuple_indices" undef, %"struct.std::__2::__tuple_types" undef, %"struct.std::__2::__tuple_indices" undef, %"struct.std::__2::__tuple_types" undef, %"class.aie::detail::vector.11"* nonnull align 32 dereferenceable(64) %call, %"class.aie::detail::vector.11"* nonnull align 32 dereferenceable(64) %call7) #31, !dbg !2621
  ret void, !dbg !2623
}

; Function Attrs: alwaysinline nounwind
define linkonce_odr dso_local void @_ZNSt3__212__tuple_implINS_15__tuple_indicesIJLj0ELj1EEEEJN3aie6detail6vectorIsLj32EEES6_EEC2IJLj0ELj1EEJS6_S6_EJEJEJS6_S6_EEENS1_IJXspT_EEEENS_13__tuple_typesIJDpT0_EEENS1_IJXspT1_EEEENSA_IJDpT2_EEEDpOT3_(%"struct.std::__2::__tuple_impl"* nonnull dereferenceable(128) %this, %"struct.std::__2::__tuple_indices" %.coerce, %"struct.std::__2::__tuple_types" %.coerce1, %"struct.std::__2::__tuple_indices" %.coerce2, %"struct.std::__2::__tuple_types" %.coerce3, %"class.aie::detail::vector.11"* nonnull align 32 dereferenceable(64) %__u, %"class.aie::detail::vector.11"* nonnull align 32 dereferenceable(64) %__u4) unnamed_addr addrspace(1) #11 comdat align 2 !dbg !2624 {
entry:
  call addrspace(1) void @llvm.dbg.value(metadata %"struct.std::__2::__tuple_indices" %.coerce, metadata !2643, metadata !DIExpression()), !dbg !2649
  call addrspace(1) void @llvm.dbg.value(metadata %"struct.std::__2::__tuple_types" %.coerce1, metadata !2644, metadata !DIExpression()), !dbg !2649
  call addrspace(1) void @llvm.dbg.value(metadata %"struct.std::__2::__tuple_indices" %.coerce2, metadata !2645, metadata !DIExpression()), !dbg !2649
  call addrspace(1) void @llvm.dbg.value(metadata %"struct.std::__2::__tuple_types" %.coerce3, metadata !2646, metadata !DIExpression()), !dbg !2649
  call addrspace(1) void @llvm.dbg.value(metadata %"struct.std::__2::__tuple_impl"* %this, metadata !2641, metadata !DIExpression()), !dbg !2649
  call addrspace(1) void @llvm.dbg.value(metadata %"class.aie::detail::vector.11"* %__u, metadata !2647, metadata !DIExpression()), !dbg !2649
  call addrspace(1) void @llvm.dbg.value(metadata %"class.aie::detail::vector.11"* %__u4, metadata !2648, metadata !DIExpression()), !dbg !2649
  %0 = bitcast %"struct.std::__2::__tuple_impl"* %this to %"class.std::__2::__tuple_leaf"*, !dbg !2650
  %call = call nonnull align 32 dereferenceable(64) addrspace(1) %"class.aie::detail::vector.11"* @_ZNSt3__27forwardIN3aie6detail6vectorIsLj32EEEEEOT_RNS_16remove_referenceIS5_E4typeE(%"class.aie::detail::vector.11"* nonnull align 32 dereferenceable(64) %__u) #31, !dbg !2651
  call addrspace(1) void @_ZNSt3__212__tuple_leafILj0EN3aie6detail6vectorIsLj32EEELb0EEC2IS4_vEEOT_(%"class.std::__2::__tuple_leaf"* nonnull dereferenceable(64) %0, %"class.aie::detail::vector.11"* nonnull align 32 dereferenceable(64) %call) #31, !dbg !2652
  %1 = bitcast %"struct.std::__2::__tuple_impl"* %this to i8*, !dbg !2650
  %2 = getelementptr inbounds i8, i8* %1, i32 64, !dbg !2650
  %3 = bitcast i8* %2 to %"class.std::__2::__tuple_leaf"*, !dbg !2650
  %call7 = call nonnull align 32 dereferenceable(64) addrspace(1) %"class.aie::detail::vector.11"* @_ZNSt3__27forwardIN3aie6detail6vectorIsLj32EEEEEOT_RNS_16remove_referenceIS5_E4typeE(%"class.aie::detail::vector.11"* nonnull align 32 dereferenceable(64) %__u4) #31, !dbg !2651
  call addrspace(1) void @_ZNSt3__212__tuple_leafILj1EN3aie6detail6vectorIsLj32EEELb0EEC2IS4_vEEOT_(%"class.std::__2::__tuple_leaf"* nonnull dereferenceable(64) %3, %"class.aie::detail::vector.11"* nonnull align 32 dereferenceable(64) %call7) #31, !dbg !2652
  ret void, !dbg !2653
}

; Function Attrs: alwaysinline nounwind
define linkonce_odr dso_local void @_ZNSt3__212__tuple_leafILj0EN3aie6detail6vectorIsLj32EEELb0EEC2IS4_vEEOT_(%"class.std::__2::__tuple_leaf"* nonnull dereferenceable(64) %this, %"class.aie::detail::vector.11"* nonnull align 32 dereferenceable(64) %__t) unnamed_addr addrspace(1) #11 comdat align 2 !dbg !2654 {
entry:
  call addrspace(1) void @llvm.dbg.value(metadata %"class.std::__2::__tuple_leaf"* %this, metadata !2661, metadata !DIExpression()), !dbg !2663
  call addrspace(1) void @llvm.dbg.value(metadata %"class.aie::detail::vector.11"* %__t, metadata !2662, metadata !DIExpression()), !dbg !2663
  %__value_ = getelementptr inbounds %"class.std::__2::__tuple_leaf", %"class.std::__2::__tuple_leaf"* %this, i32 0, i32 0, !dbg !2664
  %call = call nonnull align 32 dereferenceable(64) addrspace(1) %"class.aie::detail::vector.11"* @_ZNSt3__27forwardIN3aie6detail6vectorIsLj32EEEEEOT_RNS_16remove_referenceIS5_E4typeE(%"class.aie::detail::vector.11"* nonnull align 32 dereferenceable(64) %__t) #31, !dbg !2665
  %0 = load %"class.aie::detail::vector.11", %"class.aie::detail::vector.11"* %call, align 32, !dbg !2665, !tbaa !2188
  store %"class.aie::detail::vector.11" %0, %"class.aie::detail::vector.11"* %__value_, align 32, !dbg !2665, !tbaa !2188
  ret void, !dbg !2666
}

; Function Attrs: alwaysinline nounwind
define linkonce_odr dso_local void @_ZNSt3__212__tuple_leafILj1EN3aie6detail6vectorIsLj32EEELb0EEC2IS4_vEEOT_(%"class.std::__2::__tuple_leaf"* nonnull dereferenceable(64) %this, %"class.aie::detail::vector.11"* nonnull align 32 dereferenceable(64) %__t) unnamed_addr addrspace(1) #11 comdat align 2 !dbg !2667 {
entry:
  call addrspace(1) void @llvm.dbg.value(metadata %"class.std::__2::__tuple_leaf"* %this, metadata !2672, metadata !DIExpression()), !dbg !2674
  call addrspace(1) void @llvm.dbg.value(metadata %"class.aie::detail::vector.11"* %__t, metadata !2673, metadata !DIExpression()), !dbg !2674
  %__value_ = getelementptr inbounds %"class.std::__2::__tuple_leaf", %"class.std::__2::__tuple_leaf"* %this, i32 0, i32 0, !dbg !2675
  %call = call nonnull align 32 dereferenceable(64) addrspace(1) %"class.aie::detail::vector.11"* @_ZNSt3__27forwardIN3aie6detail6vectorIsLj32EEEEEOT_RNS_16remove_referenceIS5_E4typeE(%"class.aie::detail::vector.11"* nonnull align 32 dereferenceable(64) %__t) #31, !dbg !2676
  %0 = load %"class.aie::detail::vector.11", %"class.aie::detail::vector.11"* %call, align 32, !dbg !2676, !tbaa !2188
  store %"class.aie::detail::vector.11" %0, %"class.aie::detail::vector.11"* %__value_, align 32, !dbg !2676, !tbaa !2188
  ret void, !dbg !2677
}

; Function Attrs: alwaysinline nounwind
define linkonce_odr dso_local void @_ZN3aie6detail6vectorIsLj32EEC2Ev(%"class.aie::detail::vector.11"* nonnull dereferenceable(64) %this) unnamed_addr addrspace(1) #11 comdat align 2 !dbg !2678 {
entry:
  call addrspace(1) void @llvm.dbg.value(metadata %"class.aie::detail::vector.11"* %this, metadata !2680, metadata !DIExpression()), !dbg !2682
  %data = getelementptr inbounds %"class.aie::detail::vector.11", %"class.aie::detail::vector.11"* %this, i32 0, i32 0, !dbg !2683
  %call = call addrspace(1) %struct.v32int16 @_ZN3aie6detail14vector_storageIsLj32EE5undefEv() #26, !dbg !2684
  %0 = getelementptr inbounds %struct.v32int16, %struct.v32int16* %data, i32 0, i32 0, !dbg !2684
  %1 = extractvalue %struct.v32int16 %call, 0, !dbg !2684
  store %struct.ipd.custom_type.v64int8.v64int8 %1, %struct.ipd.custom_type.v64int8.v64int8* %0, align 32, !dbg !2684
  ret void, !dbg !2685
}

; Function Attrs: alwaysinline nounwind mustprogress
define linkonce_odr hidden nonnull align 32 dereferenceable(64) %struct.v32int16* @_ZNKSt3__25arrayI8v32int16Lj2EEixEj(%"struct.std::__2::array.15"* nonnull dereferenceable(128) %this, i32 %__n) addrspace(1) #9 comdat align 2 !dbg !2686 {
entry:
  call addrspace(1) void @llvm.dbg.value(metadata %"struct.std::__2::array.15"* %this, metadata !2688, metadata !DIExpression()), !dbg !2691
  call addrspace(1) void @llvm.dbg.value(metadata i32 %__n, metadata !2690, metadata !DIExpression()), !dbg !2691
  %__elems_ = getelementptr inbounds %"struct.std::__2::array.15", %"struct.std::__2::array.15"* %this, i32 0, i32 0, !dbg !2692
  %arrayidx = getelementptr inbounds [2 x %struct.v32int16], [2 x %struct.v32int16]* %__elems_, i32 0, i32 %__n, !dbg !2692
  ret %struct.v32int16* %arrayidx, !dbg !2693
}

; Function Attrs: alwaysinline nounwind
define linkonce_odr dso_local void @_ZN3aie6detail6vectorIsLj32EEC2E8v32int16(%"class.aie::detail::vector.11"* nonnull dereferenceable(64) %this, %struct.v32int16 %v.coerce) unnamed_addr addrspace(1) #11 comdat align 2 !dbg !2694 {
entry:
  call addrspace(1) void @llvm.dbg.value(metadata %struct.v32int16 %v.coerce, metadata !2697, metadata !DIExpression()), !dbg !2698
  call addrspace(1) void @llvm.dbg.value(metadata %"class.aie::detail::vector.11"* %this, metadata !2696, metadata !DIExpression()), !dbg !2698
  %data = getelementptr inbounds %"class.aie::detail::vector.11", %"class.aie::detail::vector.11"* %this, i32 0, i32 0, !dbg !2699
  store %struct.v32int16 %v.coerce, %struct.v32int16* %data, align 32, !dbg !2700, !tbaa !1689
  ret void, !dbg !2701
}

; Function Attrs: alwaysinline nounwind mustprogress
define linkonce_odr dso_local %struct.v32int16 @_ZN3aie6detail14vector_storageIsLj32EE5undefEv() addrspace(1) #9 comdat align 2 !dbg !2702 {
entry:
  %retval = alloca %struct.v32int16, align 32
  %call = call addrspace(1) %struct.v32int16 @_Z14undef_v32int16v() #26, !dbg !2703
  %0 = getelementptr inbounds %struct.v32int16, %struct.v32int16* %retval, i32 0, i32 0, !dbg !2703
  %1 = extractvalue %struct.v32int16 %call, 0, !dbg !2703
  store %struct.ipd.custom_type.v64int8.v64int8 %1, %struct.ipd.custom_type.v64int8.v64int8* %0, align 32, !dbg !2703
  %2 = load %struct.v32int16, %struct.v32int16* %retval, align 32, !dbg !2704
  ret %struct.v32int16 %2, !dbg !2704
}

; Function Attrs: alwaysinline nounwind mustprogress
define linkonce_odr dso_local %struct.v32int16 @_Z14undef_v32int16v() addrspace(1) #9 comdat {
entry:
  %retval = alloca %struct.v32int16, align 32
  %call = call x86_regcallcc addrspace(1) %struct.v32int16 @__regcall3__chessintr_v32int16_undef_v32int16() #34
  %0 = getelementptr inbounds %struct.v32int16, %struct.v32int16* %retval, i32 0, i32 0
  %1 = extractvalue %struct.v32int16 %call, 0
  store %struct.ipd.custom_type.v64int8.v64int8 %1, %struct.ipd.custom_type.v64int8.v64int8* %0, align 32
  %2 = load %struct.v32int16, %struct.v32int16* %retval, align 32
  ret %struct.v32int16 %2
}

; Function Attrs: nounwind readnone willreturn
declare dso_local x86_regcallcc %struct.v32int16 @__regcall3__chessintr_v32int16_undef_v32int16() addrspace(1) #13

; Function Attrs: alwaysinline nounwind mustprogress
define linkonce_odr dso_local %struct.v64uint8 @_ZN3aie6detail14vector_storageIhLj64EE5undefEv() addrspace(1) #9 comdat align 2 !dbg !2705 {
entry:
  %retval = alloca %struct.v64uint8, align 32
  %call = call addrspace(1) %struct.v64uint8 @_Z14undef_v64uint8v() #26, !dbg !2706
  %0 = getelementptr inbounds %struct.v64uint8, %struct.v64uint8* %retval, i32 0, i32 0, !dbg !2706
  %1 = extractvalue %struct.v64uint8 %call, 0, !dbg !2706
  store %struct.ipd.custom_type.v64int8.v64int8 %1, %struct.ipd.custom_type.v64int8.v64int8* %0, align 32, !dbg !2706
  %2 = load %struct.v64uint8, %struct.v64uint8* %retval, align 32, !dbg !2707
  ret %struct.v64uint8 %2, !dbg !2707
}

; Function Attrs: alwaysinline nounwind mustprogress
define linkonce_odr dso_local %struct.v64uint8 @_Z14undef_v64uint8v() addrspace(1) #9 comdat {
entry:
  %retval = alloca %struct.v64uint8, align 32
  %call = call x86_regcallcc addrspace(1) %struct.v64uint8 @__regcall3__chessintr_v64uint8_undef_v64uint8() #34
  %0 = getelementptr inbounds %struct.v64uint8, %struct.v64uint8* %retval, i32 0, i32 0
  %1 = extractvalue %struct.v64uint8 %call, 0
  store %struct.ipd.custom_type.v64int8.v64int8 %1, %struct.ipd.custom_type.v64int8.v64int8* %0, align 32
  %2 = load %struct.v64uint8, %struct.v64uint8* %retval, align 32
  ret %struct.v64uint8 %2
}

; Function Attrs: nounwind readnone willreturn
declare dso_local x86_regcallcc %struct.v64uint8 @__regcall3__chessintr_v64uint8_undef_v64uint8() addrspace(1) #13

; Function Attrs: argmemonly nofree nosync nounwind willreturn
declare void @llvm.memcpy.p0i8.p0i8.i32(i8* noalias nocapture writeonly, i8* noalias nocapture readonly, i32, i1 immarg) addrspace(1) #3

; Function Attrs: alwaysinline nounwind
define linkonce_odr dso_local void @_ZN3aie6detail6vectorIsLj64EEC2Ev(%"class.aie::detail::vector.14"* nonnull dereferenceable(128) %this) unnamed_addr addrspace(1) #11 comdat align 2 !dbg !2708 {
entry:
  call addrspace(1) void @llvm.dbg.value(metadata %"class.aie::detail::vector.14"* %this, metadata !2710, metadata !DIExpression()), !dbg !2712
  %data = getelementptr inbounds %"class.aie::detail::vector.14", %"class.aie::detail::vector.14"* %this, i32 0, i32 0, !dbg !2713
  call addrspace(1) void @_ZN3aie6detail14vector_storageIsLj64EE5undefEv(%"struct.std::__2::array.15"* sret(%"struct.std::__2::array.15") align 32 %data) #26, !dbg !2714
  ret void, !dbg !2715
}

; Function Attrs: alwaysinline nounwind readonly willreturn mustprogress
define linkonce_odr dso_local zeroext i1 @_ZN3aie6detail5utils14is_same_objectINS0_6vectorIsLj64EEES4_EEbRKT_RKT0_(%"class.aie::detail::vector.14"* nonnull align 32 dereferenceable(128) %a, %"class.aie::detail::vector.14"* nonnull align 32 dereferenceable(128) %b) addrspace(1) #21 comdat !dbg !2716 {
entry:
  call addrspace(1) void @llvm.dbg.value(metadata %"class.aie::detail::vector.14"* %a, metadata !2722, metadata !DIExpression()), !dbg !2727
  call addrspace(1) void @llvm.dbg.value(metadata %"class.aie::detail::vector.14"* %b, metadata !2723, metadata !DIExpression()), !dbg !2727
  %cmp = icmp eq %"class.aie::detail::vector.14"* %a, %b, !dbg !2728
  ret i1 %cmp, !dbg !2730
}

; Function Attrs: alwaysinline nounwind mustprogress
define linkonce_odr dso_local %struct.v32int16 @_ZZN3aie6detail17add_sub_bits_implILj16EsLj64ELNS0_15AddSubOperationE0EE6get_opEvENKUlDpOT_E_clIJNS0_6vectorIsLj32EEEiiiiiiiiEEEDaS6_(%class.anon* nonnull dereferenceable(1) %this, %"class.aie::detail::vector.11"* nonnull align 32 dereferenceable(64) %params, i32* nonnull align 4 dereferenceable(4) %params1, i32* nonnull align 4 dereferenceable(4) %params3, i32* nonnull align 4 dereferenceable(4) %params5, i32* nonnull align 4 dereferenceable(4) %params7, i32* nonnull align 4 dereferenceable(4) %params9, i32* nonnull align 4 dereferenceable(4) %params11, i32* nonnull align 4 dereferenceable(4) %params13, i32* nonnull align 4 dereferenceable(4) %params15) addrspace(1) #9 comdat align 2 !dbg !2731 {
entry:
  %retval = alloca %struct.v32int16, align 32
  %agg.tmp = alloca %struct.v32int16, align 32
  call addrspace(1) void @llvm.dbg.value(metadata %class.anon* %this, metadata !2744, metadata !DIExpression()), !dbg !2755
  call addrspace(1) void @llvm.dbg.value(metadata %"class.aie::detail::vector.11"* %params, metadata !2746, metadata !DIExpression()), !dbg !2755
  call addrspace(1) void @llvm.dbg.value(metadata i32* %params1, metadata !2747, metadata !DIExpression()), !dbg !2755
  call addrspace(1) void @llvm.dbg.value(metadata i32* %params3, metadata !2748, metadata !DIExpression()), !dbg !2755
  call addrspace(1) void @llvm.dbg.value(metadata i32* %params5, metadata !2749, metadata !DIExpression()), !dbg !2755
  call addrspace(1) void @llvm.dbg.value(metadata i32* %params7, metadata !2750, metadata !DIExpression()), !dbg !2755
  call addrspace(1) void @llvm.dbg.value(metadata i32* %params9, metadata !2751, metadata !DIExpression()), !dbg !2755
  call addrspace(1) void @llvm.dbg.value(metadata i32* %params11, metadata !2752, metadata !DIExpression()), !dbg !2755
  call addrspace(1) void @llvm.dbg.value(metadata i32* %params13, metadata !2753, metadata !DIExpression()), !dbg !2755
  call addrspace(1) void @llvm.dbg.value(metadata i32* %params15, metadata !2754, metadata !DIExpression()), !dbg !2755
  %call = call addrspace(1) %struct.v32int16 @_ZNK3aie6detail6vectorIsLj32EEcv8v32int16Ev(%"class.aie::detail::vector.11"* nonnull dereferenceable(64) %params) #26, !dbg !2756
  %0 = getelementptr inbounds %struct.v32int16, %struct.v32int16* %agg.tmp, i32 0, i32 0, !dbg !2756
  %1 = extractvalue %struct.v32int16 %call, 0, !dbg !2756
  store %struct.ipd.custom_type.v64int8.v64int8 %1, %struct.ipd.custom_type.v64int8.v64int8* %0, align 32, !dbg !2756
  %2 = load i32, i32* %params1, align 4, !dbg !2756, !tbaa !1076
  %3 = load i32, i32* %params3, align 4, !dbg !2756, !tbaa !1076
  %4 = load i32, i32* %params5, align 4, !dbg !2756, !tbaa !1076
  %5 = load i32, i32* %params7, align 4, !dbg !2756, !tbaa !1076
  %6 = load i32, i32* %params9, align 4, !dbg !2756, !tbaa !1076
  %7 = load i32, i32* %params11, align 4, !dbg !2756, !tbaa !1076
  %8 = load i32, i32* %params13, align 4, !dbg !2756, !tbaa !1076
  %9 = load i32, i32* %params15, align 4, !dbg !2756, !tbaa !1076
  %10 = load %struct.v32int16, %struct.v32int16* %agg.tmp, align 32, !dbg !2757, !tbaa !1689
  %call18 = call addrspace(1) %struct.v32int16 @_Z5add328v32int16ijjjijjj(%struct.v32int16 %10, i32 %2, i32 %3, i32 %4, i32 %5, i32 %6, i32 %7, i32 %8, i32 %9) #26, !dbg !2757
  %11 = getelementptr inbounds %struct.v32int16, %struct.v32int16* %retval, i32 0, i32 0, !dbg !2757
  %12 = extractvalue %struct.v32int16 %call18, 0, !dbg !2757
  store %struct.ipd.custom_type.v64int8.v64int8 %12, %struct.ipd.custom_type.v64int8.v64int8* %11, align 32, !dbg !2757
  %13 = load %struct.v32int16, %struct.v32int16* %retval, align 32, !dbg !2758
  ret %struct.v32int16 %13, !dbg !2758
}

; Function Attrs: alwaysinline nounwind mustprogress
define linkonce_odr dso_local nonnull align 32 dereferenceable(128) %"class.aie::detail::vector.14"* @_ZN3aie6detail6vectorIsLj64EE6insertILj32EEERS2_jRKNS1_IsXT_EEE(%"class.aie::detail::vector.14"* nonnull dereferenceable(128) %this, i32 %idx, %"class.aie::detail::vector.11"* nonnull align 32 dereferenceable(64) %v) addrspace(1) #9 comdat align 2 !dbg !2759 {
entry:
  call addrspace(1) void @llvm.dbg.value(metadata %"class.aie::detail::vector.14"* %this, metadata !2766, metadata !DIExpression()), !dbg !2770
  call addrspace(1) void @llvm.dbg.value(metadata i32 %idx, metadata !2767, metadata !DIExpression()), !dbg !2770
  call addrspace(1) void @llvm.dbg.value(metadata %"class.aie::detail::vector.11"* %v, metadata !2768, metadata !DIExpression()), !dbg !2770
  %cmp = icmp ult i32 %idx, 2, !dbg !2771
  %0 = call addrspace(1) i1 @llvm.is.constant.i1(i1 %cmp), !dbg !2771
  br i1 %0, label %do.body, label %if.end4, !dbg !2773

do.body:                                          ; preds = %entry
  %cmp2 = icmp ult i32 %idx, 2, !dbg !2774
  %1 = call addrspace(1) i1 @llvm.chess_manifest(i1 %cmp2), !dbg !2774
  br i1 %1, label %if.end4, label %if.then3, !dbg !2778

if.then3:                                         ; preds = %do.body
  call addrspace(1) void @llvm.chess_error(metadata !1677), !dbg !2774
  unreachable, !dbg !2774

if.end4:                                          ; preds = %do.body, %entry
  %cmp5 = icmp ult i32 %idx, 2, !dbg !2773
  call addrspace(1) void @llvm.assume(i1 %cmp5), !dbg !2773
  call addrspace(1) void @llvm.dbg.value(metadata i32 undef, metadata !2769, metadata !DIExpression()), !dbg !2770
  call addrspace(1) void @llvm.dbg.value(metadata i32 512, metadata !2769, metadata !DIExpression()), !dbg !2770
  %2 = call addrspace(1) i1 @llvm.is.constant.i32(i32 %idx), !dbg !2779
  br i1 %2, label %if.then6, label %if.else, !dbg !2783

if.then6:                                         ; preds = %if.end4
  %data = getelementptr inbounds %"class.aie::detail::vector.14", %"class.aie::detail::vector.14"* %this, i32 0, i32 0, !dbg !2784
  %call = call nonnull align 32 dereferenceable(64) addrspace(1) %struct.v32int16* @_ZNSt3__25arrayI8v32int16Lj2EEixEj(%"struct.std::__2::array.15"* nonnull dereferenceable(128) %data, i32 %idx) #31, !dbg !2784
  %data7 = getelementptr inbounds %"class.aie::detail::vector.11", %"class.aie::detail::vector.11"* %v, i32 0, i32 0, !dbg !2789
  %3 = load %struct.v32int16, %struct.v32int16* %data7, align 32, !dbg !2789, !tbaa !1689
  store %struct.v32int16 %3, %struct.v32int16* %call, align 32, !dbg !2789, !tbaa !1689
  br label %if.end11, !dbg !2790

if.else:                                          ; preds = %if.end4
  %data8 = getelementptr inbounds %"class.aie::detail::vector.14", %"class.aie::detail::vector.14"* %this, i32 0, i32 0, !dbg !2791
  %call9 = call nonnull align 32 dereferenceable(64) addrspace(1) %struct.v32int16* @_ZNSt3__25arrayI8v32int16Lj2EEixEj(%"struct.std::__2::array.15"* nonnull dereferenceable(128) %data8, i32 %idx) #31, !dbg !2791
  %data10 = getelementptr inbounds %"class.aie::detail::vector.11", %"class.aie::detail::vector.11"* %v, i32 0, i32 0, !dbg !2794
  %4 = load %struct.v32int16, %struct.v32int16* %data10, align 32, !dbg !2794, !tbaa !1689
  store %struct.v32int16 %4, %struct.v32int16* %call9, align 32, !dbg !2794, !tbaa !1689
  br label %if.end11

if.end11:                                         ; preds = %if.else, %if.then6
  ret %"class.aie::detail::vector.14"* %this, !dbg !2795
}

; Function Attrs: alwaysinline nounwind mustprogress
define linkonce_odr dso_local %struct.v32int16 @_ZZN3aie6detail17add_sub_bits_implILj16EsLj64ELNS0_15AddSubOperationE0EE6get_opEvENKUlDpOT_E_clIJNS0_6vectorIsLj32EEESA_EEEDaS6_(%class.anon* nonnull dereferenceable(1) %this, %"class.aie::detail::vector.11"* nonnull align 32 dereferenceable(64) %params, %"class.aie::detail::vector.11"* nonnull align 32 dereferenceable(64) %params1) addrspace(1) #9 comdat align 2 !dbg !2796 {
entry:
  %retval = alloca %struct.v32int16, align 32
  %agg.tmp = alloca %struct.v32int16, align 32
  %agg.tmp4 = alloca %struct.v32int16, align 32
  call addrspace(1) void @llvm.dbg.value(metadata %class.anon* %this, metadata !2805, metadata !DIExpression()), !dbg !2808
  call addrspace(1) void @llvm.dbg.value(metadata %"class.aie::detail::vector.11"* %params, metadata !2806, metadata !DIExpression()), !dbg !2808
  call addrspace(1) void @llvm.dbg.value(metadata %"class.aie::detail::vector.11"* %params1, metadata !2807, metadata !DIExpression()), !dbg !2808
  %call = call addrspace(1) %struct.v32int16 @_ZNK3aie6detail6vectorIsLj32EEcv8v32int16Ev(%"class.aie::detail::vector.11"* nonnull dereferenceable(64) %params) #26, !dbg !2809
  %0 = getelementptr inbounds %struct.v32int16, %struct.v32int16* %agg.tmp, i32 0, i32 0, !dbg !2809
  %1 = extractvalue %struct.v32int16 %call, 0, !dbg !2809
  store %struct.ipd.custom_type.v64int8.v64int8 %1, %struct.ipd.custom_type.v64int8.v64int8* %0, align 32, !dbg !2809
  %call5 = call addrspace(1) %struct.v32int16 @_ZNK3aie6detail6vectorIsLj32EEcv8v32int16Ev(%"class.aie::detail::vector.11"* nonnull dereferenceable(64) %params1) #26, !dbg !2809
  %2 = getelementptr inbounds %struct.v32int16, %struct.v32int16* %agg.tmp4, i32 0, i32 0, !dbg !2809
  %3 = extractvalue %struct.v32int16 %call5, 0, !dbg !2809
  store %struct.ipd.custom_type.v64int8.v64int8 %3, %struct.ipd.custom_type.v64int8.v64int8* %2, align 32, !dbg !2809
  %4 = load %struct.v32int16, %struct.v32int16* %agg.tmp, align 32, !dbg !2810, !tbaa !1689
  %5 = load %struct.v32int16, %struct.v32int16* %agg.tmp4, align 32, !dbg !2810, !tbaa !1689
  %call6 = call addrspace(1) %struct.v32int16 @_Z5add328v32int16S_(%struct.v32int16 %4, %struct.v32int16 %5) #36, !dbg !2810
  %6 = getelementptr inbounds %struct.v32int16, %struct.v32int16* %retval, i32 0, i32 0, !dbg !2810
  %7 = extractvalue %struct.v32int16 %call6, 0, !dbg !2810
  store %struct.ipd.custom_type.v64int8.v64int8 %7, %struct.ipd.custom_type.v64int8.v64int8* %6, align 32, !dbg !2810
  %8 = load %struct.v32int16, %struct.v32int16* %retval, align 32, !dbg !2811
  ret %struct.v32int16 %8, !dbg !2811
}

; Function Attrs: alwaysinline nounwind mustprogress
define linkonce_odr dso_local %struct.v32int16 @_ZNK3aie6detail6vectorIsLj32EEcv8v32int16Ev(%"class.aie::detail::vector.11"* nonnull dereferenceable(64) %this) addrspace(1) #9 comdat align 2 !dbg !2812 {
entry:
  %retval = alloca %struct.v32int16, align 32
  call addrspace(1) void @llvm.dbg.value(metadata %"class.aie::detail::vector.11"* %this, metadata !2814, metadata !DIExpression()), !dbg !2815
  %call = call addrspace(1) %struct.v32int16 @_ZNK3aie6detail6vectorIsLj32EE9to_nativeEv(%"class.aie::detail::vector.11"* nonnull dereferenceable(64) %this) #26, !dbg !2816
  %0 = getelementptr inbounds %struct.v32int16, %struct.v32int16* %retval, i32 0, i32 0, !dbg !2816
  %1 = extractvalue %struct.v32int16 %call, 0, !dbg !2816
  store %struct.ipd.custom_type.v64int8.v64int8 %1, %struct.ipd.custom_type.v64int8.v64int8* %0, align 32, !dbg !2816
  %2 = load %struct.v32int16, %struct.v32int16* %retval, align 32, !dbg !2817
  ret %struct.v32int16 %2, !dbg !2817
}

; Function Attrs: alwaysinline nounwind mustprogress
define linkonce_odr dso_local %struct.v32int16 @_Z5add328v32int16S_(%struct.v32int16 %xbuff.coerce, %struct.v32int16 %ybuff.coerce) addrspace(1) #22 comdat {
entry:
  %retval = alloca %struct.v32int16, align 32
  %rbuff = alloca %struct.v64int16, align 32
  store %struct.v64int16 undef, %struct.v64int16* %rbuff, align 32
  %0 = bitcast %struct.v64int16* %rbuff to i8*
  call addrspace(1) void @llvm.lifetime.start.p0i8(i64 128, i8* %0) #30
  %call = call addrspace(1) %struct.v64int16 @_Z6concat8v32int16S_(%struct.v32int16 %xbuff.coerce, %struct.v32int16 %ybuff.coerce) #26
  %1 = getelementptr inbounds %struct.v64int16, %struct.v64int16* %rbuff, i32 0, i32 0
  %2 = extractvalue %struct.v64int16 %call, 0
  store %struct.ipd.custom_type.v128int8.v128int8 %2, %struct.ipd.custom_type.v128int8.v128int8* %1, align 32
  %3 = load %struct.v64int16, %struct.v64int16* %rbuff, align 32, !tbaa !2818
  %call1 = call addrspace(1) %struct.v32int16 @_Z5add328v64int16ijjjijjj(%struct.v64int16 %3, i32 0, i32 100925952, i32 235670024, i32 12816, i32 32, i32 100925952, i32 235670024, i32 12816) #26
  %4 = getelementptr inbounds %struct.v32int16, %struct.v32int16* %retval, i32 0, i32 0
  %5 = extractvalue %struct.v32int16 %call1, 0
  store %struct.ipd.custom_type.v64int8.v64int8 %5, %struct.ipd.custom_type.v64int8.v64int8* %4, align 32
  %6 = bitcast %struct.v64int16* %rbuff to i8*
  call addrspace(1) void @llvm.lifetime.end.p0i8(i64 128, i8* %6) #30
  %7 = load %struct.v32int16, %struct.v32int16* %retval, align 32
  ret %struct.v32int16 %7
}

; Function Attrs: alwaysinline nounwind mustprogress
define linkonce_odr dso_local %struct.v64int16 @_Z6concat8v32int16S_(%struct.v32int16 %a0.coerce, %struct.v32int16 %a1.coerce) addrspace(1) #9 comdat {
entry:
  %retval = alloca %struct.v64int16, align 32
  %call = call x86_regcallcc addrspace(1) %struct.v64int16 @__regcall3__chessintr_v64int16_concat_v32int16_v32int16(%struct.v32int16 %a0.coerce, %struct.v32int16 %a1.coerce) #34
  %0 = getelementptr inbounds %struct.v64int16, %struct.v64int16* %retval, i32 0, i32 0
  %1 = extractvalue %struct.v64int16 %call, 0
  store %struct.ipd.custom_type.v128int8.v128int8 %1, %struct.ipd.custom_type.v128int8.v128int8* %0, align 32
  %2 = load %struct.v64int16, %struct.v64int16* %retval, align 32
  ret %struct.v64int16 %2
}

; Function Attrs: alwaysinline nounwind mustprogress
define linkonce_odr dso_local %struct.v32int16 @_Z5add328v64int16ijjjijjj(%struct.v64int16 %a0.coerce, i32 %a1, i32 %a2, i32 %a3, i32 %a4, i32 %a5, i32 %a6, i32 %a7, i32 %a8) addrspace(1) #9 comdat {
entry:
  %retval = alloca %struct.v32int16, align 32
  %call = call x86_regcallcc addrspace(1) %struct.v32int16 @__regcall3__chessintr_v32int16_add32_v64int16___sint___uint___uint___uint___sint___uint___uint___uint(%struct.v64int16 %a0.coerce, i32 signext 0, i32 zeroext 100925952, i32 zeroext 235670024, i32 zeroext 12816, i32 signext 32, i32 zeroext 100925952, i32 zeroext 235670024, i32 zeroext 12816) #34
  %0 = getelementptr inbounds %struct.v32int16, %struct.v32int16* %retval, i32 0, i32 0
  %1 = extractvalue %struct.v32int16 %call, 0
  store %struct.ipd.custom_type.v64int8.v64int8 %1, %struct.ipd.custom_type.v64int8.v64int8* %0, align 32
  %2 = load %struct.v32int16, %struct.v32int16* %retval, align 32
  ret %struct.v32int16 %2
}

; Function Attrs: nounwind readnone willreturn
declare dso_local x86_regcallcc %struct.v32int16 @__regcall3__chessintr_v32int16_add32_v64int16___sint___uint___uint___uint___sint___uint___uint___uint(%struct.v64int16, i32 signext, i32 zeroext, i32 zeroext, i32 zeroext, i32 signext, i32 zeroext, i32 zeroext, i32 zeroext) addrspace(1) #13

; Function Attrs: nounwind readnone willreturn
declare dso_local x86_regcallcc %struct.v64int16 @__regcall3__chessintr_v64int16_concat_v32int16_v32int16(%struct.v32int16, %struct.v32int16) addrspace(1) #13

; Function Attrs: alwaysinline nounwind mustprogress
define linkonce_odr dso_local %struct.v32int16 @_ZNK3aie6detail6vectorIsLj32EE9to_nativeEv(%"class.aie::detail::vector.11"* nonnull dereferenceable(64) %this) addrspace(1) #9 comdat align 2 !dbg !2820 {
entry:
  call addrspace(1) void @llvm.dbg.value(metadata %"class.aie::detail::vector.11"* %this, metadata !2827, metadata !DIExpression()), !dbg !2828
  %data = getelementptr inbounds %"class.aie::detail::vector.11", %"class.aie::detail::vector.11"* %this, i32 0, i32 0, !dbg !2829
  %0 = load %struct.v32int16, %struct.v32int16* %data, align 32, !dbg !2829, !tbaa !1689
  ret %struct.v32int16 %0, !dbg !2829
}

; Function Attrs: alwaysinline nounwind mustprogress
define linkonce_odr hidden nonnull align 32 dereferenceable(64) %struct.v32int16* @_ZNSt3__25arrayI8v32int16Lj2EEixEj(%"struct.std::__2::array.15"* nonnull dereferenceable(128) %this, i32 %__n) addrspace(1) #9 comdat align 2 !dbg !2831 {
entry:
  call addrspace(1) void @llvm.dbg.value(metadata %"struct.std::__2::array.15"* %this, metadata !2833, metadata !DIExpression()), !dbg !2836
  call addrspace(1) void @llvm.dbg.value(metadata i32 %__n, metadata !2835, metadata !DIExpression()), !dbg !2836
  %__elems_ = getelementptr inbounds %"struct.std::__2::array.15", %"struct.std::__2::array.15"* %this, i32 0, i32 0, !dbg !2837
  %arrayidx = getelementptr inbounds [2 x %struct.v32int16], [2 x %struct.v32int16]* %__elems_, i32 0, i32 %__n, !dbg !2837
  ret %struct.v32int16* %arrayidx, !dbg !2838
}

; Function Attrs: alwaysinline nounwind mustprogress
define linkonce_odr dso_local %struct.v32int16 @_Z5add328v32int16ijjjijjj(%struct.v32int16 %a0.coerce, i32 %a1, i32 %a2, i32 %a3, i32 %a4, i32 %a5, i32 %a6, i32 %a7, i32 %a8) addrspace(1) #9 comdat {
entry:
  %retval = alloca %struct.v32int16, align 32
  %call = call x86_regcallcc addrspace(1) %struct.v32int16 @__regcall3__chessintr_v32int16_add32_v32int16___sint___uint___uint___uint___sint___uint___uint___uint(%struct.v32int16 %a0.coerce, i32 signext %a1, i32 zeroext %a2, i32 zeroext %a3, i32 zeroext %a4, i32 signext %a5, i32 zeroext %a6, i32 zeroext %a7, i32 zeroext %a8) #34
  %0 = getelementptr inbounds %struct.v32int16, %struct.v32int16* %retval, i32 0, i32 0
  %1 = extractvalue %struct.v32int16 %call, 0
  store %struct.ipd.custom_type.v64int8.v64int8 %1, %struct.ipd.custom_type.v64int8.v64int8* %0, align 32
  %2 = load %struct.v32int16, %struct.v32int16* %retval, align 32
  ret %struct.v32int16 %2
}

; Function Attrs: nounwind readnone willreturn
declare dso_local x86_regcallcc %struct.v32int16 @__regcall3__chessintr_v32int16_add32_v32int16___sint___uint___uint___uint___sint___uint___uint___uint(%struct.v32int16, i32 signext, i32 zeroext, i32 zeroext, i32 zeroext, i32 signext, i32 zeroext, i32 zeroext, i32 zeroext) addrspace(1) #13

; Function Attrs: alwaysinline nounwind mustprogress
define linkonce_odr dso_local void @_ZN3aie6detail14vector_storageIsLj64EE5undefEv(%"struct.std::__2::array.15"* noalias sret(%"struct.std::__2::array.15") align 32 %agg.result) addrspace(1) #9 comdat align 2 !dbg !2839 {
entry:
  %__elems_ = getelementptr inbounds %"struct.std::__2::array.15", %"struct.std::__2::array.15"* %agg.result, i32 0, i32 0, !dbg !2840
  %arrayinit.begin = getelementptr inbounds [2 x %struct.v32int16], [2 x %struct.v32int16]* %__elems_, i32 0, i32 0, !dbg !2841
  %call = call addrspace(1) %struct.v32int16 @_Z14undef_v32int16v() #26, !dbg !2841
  %0 = getelementptr inbounds %struct.v32int16, %struct.v32int16* %arrayinit.begin, i32 0, i32 0, !dbg !2841
  %1 = extractvalue %struct.v32int16 %call, 0, !dbg !2841
  store %struct.ipd.custom_type.v64int8.v64int8 %1, %struct.ipd.custom_type.v64int8.v64int8* %0, align 32, !dbg !2841
  %arrayinit.element = getelementptr inbounds %struct.v32int16, %struct.v32int16* %arrayinit.begin, i32 1, !dbg !2841
  %call1 = call addrspace(1) %struct.v32int16 @_Z14undef_v32int16v() #26, !dbg !2842
  %2 = getelementptr inbounds %struct.v32int16, %struct.v32int16* %arrayinit.element, i32 0, i32 0, !dbg !2842
  %3 = extractvalue %struct.v32int16 %call1, 0, !dbg !2842
  store %struct.ipd.custom_type.v64int8.v64int8 %3, %struct.ipd.custom_type.v64int8.v64int8* %2, align 32, !dbg !2842
  ret void, !dbg !2843
}

; Function Attrs: alwaysinline nounwind mustprogress
define linkonce_odr dso_local void @_ZNK3aie6detail6vectorIhLj64EE5splitILj32EEEDav(%"class.std::__2::tuple.32"* noalias sret(%"class.std::__2::tuple.32") align 32 %agg.result, %"class.aie::detail::vector.8"* nonnull dereferenceable(64) %this) addrspace(1) #9 comdat align 2 !dbg !2844 {
entry:
  %ref.tmp = alloca %"struct.std::__2::integer_sequence", align 1
  call addrspace(1) void @llvm.dbg.value(metadata %"class.aie::detail::vector.8"* %this, metadata !2851, metadata !DIExpression()), !dbg !2853
  call addrspace(1) void @llvm.dbg.value(metadata i32 undef, metadata !2852, metadata !DIExpression()), !dbg !2853
  call addrspace(1) void @llvm.dbg.value(metadata i32 256, metadata !2852, metadata !DIExpression()), !dbg !2853
  %0 = bitcast %"struct.std::__2::integer_sequence"* %ref.tmp to i8*, !dbg !2854
  call addrspace(1) void @llvm.lifetime.start.p0i8(i64 1, i8* %0) #30, !dbg !2854
  call addrspace(1) void @_ZNK3aie6detail6vectorIhLj64EE12split_helperILj32EJLj0ELj1EEEEDaONSt3__216integer_sequenceIjJXspT0_EEEE(%"class.std::__2::tuple.32"* sret(%"class.std::__2::tuple.32") align 32 %agg.result, %"class.aie::detail::vector.8"* nonnull dereferenceable(64) %this, %"struct.std::__2::integer_sequence"* nonnull align 1 dereferenceable(1) %ref.tmp) #26, !dbg !2855
  %1 = bitcast %"struct.std::__2::integer_sequence"* %ref.tmp to i8*, !dbg !2856
  call addrspace(1) void @llvm.lifetime.end.p0i8(i64 1, i8* %1) #30, !dbg !2856
  ret void, !dbg !2857
}

; Function Attrs: alwaysinline nounwind mustprogress
define linkonce_odr hidden nonnull align 32 dereferenceable(32) %"class.aie::detail::vector.35"* @_ZNSt3__23getILj0EJN3aie6detail6vectorIhLj32EEES4_EEEONS_13tuple_elementIXT_ENS_5tupleIJDpT0_EEEE4typeEOS9_(%"class.std::__2::tuple.32"* nonnull align 32 dereferenceable(64) %__t) addrspace(1) #9 comdat !dbg !2858 {
entry:
  call addrspace(1) void @llvm.dbg.value(metadata %"class.std::__2::tuple.32"* %__t, metadata !2862, metadata !DIExpression()), !dbg !2864
  %__base_ = getelementptr inbounds %"class.std::__2::tuple.32", %"class.std::__2::tuple.32"* %__t, i32 0, i32 0, !dbg !2865
  %0 = bitcast %"struct.std::__2::__tuple_impl.33"* %__base_ to %"class.std::__2::__tuple_leaf.34"*, !dbg !2866
  %call = call nonnull align 32 dereferenceable(32) addrspace(1) %"class.aie::detail::vector.35"* @_ZNSt3__212__tuple_leafILj0EN3aie6detail6vectorIhLj32EEELb0EE3getEv(%"class.std::__2::__tuple_leaf.34"* nonnull dereferenceable(32) %0) #31, !dbg !2867
  ret %"class.aie::detail::vector.35"* %call, !dbg !2868
}

; Function Attrs: alwaysinline nounwind mustprogress
define linkonce_odr hidden nonnull align 32 dereferenceable(32) %"class.aie::detail::vector.35"* @_ZNSt3__23getILj1EJN3aie6detail6vectorIhLj32EEES4_EEEONS_13tuple_elementIXT_ENS_5tupleIJDpT0_EEEE4typeEOS9_(%"class.std::__2::tuple.32"* nonnull align 32 dereferenceable(64) %__t) addrspace(1) #9 comdat !dbg !2869 {
entry:
  call addrspace(1) void @llvm.dbg.value(metadata %"class.std::__2::tuple.32"* %__t, metadata !2871, metadata !DIExpression()), !dbg !2873
  %__base_ = getelementptr inbounds %"class.std::__2::tuple.32", %"class.std::__2::tuple.32"* %__t, i32 0, i32 0, !dbg !2874
  %0 = bitcast %"struct.std::__2::__tuple_impl.33"* %__base_ to i8*, !dbg !2875
  %add.ptr = getelementptr inbounds i8, i8* %0, i32 32, !dbg !2875
  %1 = bitcast i8* %add.ptr to %"class.std::__2::__tuple_leaf.34"*, !dbg !2875
  %call = call nonnull align 32 dereferenceable(32) addrspace(1) %"class.aie::detail::vector.35"* @_ZNSt3__212__tuple_leafILj1EN3aie6detail6vectorIhLj32EEELb0EE3getEv(%"class.std::__2::__tuple_leaf.34"* nonnull dereferenceable(32) %1) #31, !dbg !2876
  ret %"class.aie::detail::vector.35"* %call, !dbg !2877
}

; Function Attrs: alwaysinline nounwind mustprogress
define linkonce_odr dso_local %"class.aie::detail::vector.11" @_ZNK3aie6detail6vectorIhLj32EE6unpackEv(%"class.aie::detail::vector.35"* nonnull dereferenceable(32) %this) addrspace(1) #9 comdat align 2 !dbg !2878 {
entry:
  %retval = alloca %"class.aie::detail::vector.11", align 32
  %custom_type.tmp = alloca %"class.aie::detail::vector.11", align 32
  %tmp = alloca %struct.v32int16, align 32
  call addrspace(1) void @llvm.dbg.value(metadata %"class.aie::detail::vector.35"* %this, metadata !2880, metadata !DIExpression()), !dbg !2883
  call addrspace(1) void @llvm.dbg.declare(metadata %"class.aie::detail::vector.11"* %retval, metadata !2882, metadata !DIExpression()), !dbg !2884
  call addrspace(1) void @_ZN3aie6detail6vectorIsLj32EEC2Ev(%"class.aie::detail::vector.11"* nonnull dereferenceable(64) %custom_type.tmp) #26, !dbg !2884
  %0 = load %"class.aie::detail::vector.11", %"class.aie::detail::vector.11"* %custom_type.tmp, align 32, !dbg !2884, !tbaa !2188
  store %"class.aie::detail::vector.11" %0, %"class.aie::detail::vector.11"* %retval, align 32, !dbg !2884, !tbaa !2188
  %data = getelementptr inbounds %"class.aie::detail::vector.11", %"class.aie::detail::vector.11"* %retval, i32 0, i32 0, !dbg !2885
  %1 = bitcast %struct.v32int16* %tmp to i8*, !dbg !2888
  call addrspace(1) void @llvm.lifetime.start.p0i8(i64 64, i8* %1) #30, !dbg !2888
  %data2 = getelementptr inbounds %"class.aie::detail::vector.35", %"class.aie::detail::vector.35"* %this, i32 0, i32 0, !dbg !2889
  %2 = load %struct.v32uint8, %struct.v32uint8* %data2, align 32, !dbg !2888, !tbaa !2487
  %call = call addrspace(1) %struct.v32int16 @_Z6unpack8v32uint8(%struct.v32uint8 %2) #33, !dbg !2888
  %3 = getelementptr inbounds %struct.v32int16, %struct.v32int16* %tmp, i32 0, i32 0, !dbg !2888
  %4 = extractvalue %struct.v32int16 %call, 0, !dbg !2888
  store %struct.ipd.custom_type.v64int8.v64int8 %4, %struct.ipd.custom_type.v64int8.v64int8* %3, align 32, !dbg !2888
  %5 = load %struct.v32int16, %struct.v32int16* %tmp, align 32, !dbg !2888, !tbaa !1689
  store %struct.v32int16 %5, %struct.v32int16* %data, align 32, !dbg !2888, !tbaa !1689
  %6 = bitcast %struct.v32int16* %tmp to i8*, !dbg !2888
  call addrspace(1) void @llvm.lifetime.end.p0i8(i64 64, i8* %6) #30, !dbg !2888
  %7 = load %"class.aie::detail::vector.11", %"class.aie::detail::vector.11"* %retval, align 32, !dbg !2890
  ret %"class.aie::detail::vector.11" %7, !dbg !2890
}

; Function Attrs: alwaysinline nounwind mustprogress
define linkonce_odr dso_local nonnull align 32 dereferenceable(128) %"class.aie::detail::vector.14"* @_ZN3aie6detail6vectorIsLj64EE7upd_allIJNS1_IsLj32EEES4_EEERS2_DpOT_(%"class.aie::detail::vector.14"* nonnull dereferenceable(128) %this, %"class.aie::detail::vector.11"* nonnull align 32 dereferenceable(64) %subvectors, %"class.aie::detail::vector.11"* nonnull align 32 dereferenceable(64) %subvectors1) addrspace(1) #9 comdat align 2 !dbg !2891 {
entry:
  %t = alloca %"class.std::__2::tuple", align 32
  call addrspace(1) void @llvm.dbg.value(metadata %"class.aie::detail::vector.14"* %this, metadata !2898, metadata !DIExpression()), !dbg !2907
  call addrspace(1) void @llvm.dbg.value(metadata %"class.aie::detail::vector.11"* %subvectors, metadata !2899, metadata !DIExpression()), !dbg !2907
  call addrspace(1) void @llvm.dbg.value(metadata %"class.aie::detail::vector.11"* %subvectors1, metadata !2900, metadata !DIExpression()), !dbg !2907
  call addrspace(1) void @llvm.dbg.value(metadata i32 undef, metadata !2901, metadata !DIExpression()), !dbg !2907
  call addrspace(1) void @llvm.dbg.value(metadata i32 2, metadata !2901, metadata !DIExpression()), !dbg !2907
  call addrspace(1) void @llvm.dbg.value(metadata i32 undef, metadata !2902, metadata !DIExpression()), !dbg !2907
  call addrspace(1) void @llvm.dbg.value(metadata i32 512, metadata !2902, metadata !DIExpression()), !dbg !2907
  call addrspace(1) void @llvm.dbg.value(metadata i32 undef, metadata !2903, metadata !DIExpression()), !dbg !2907
  call addrspace(1) void @llvm.dbg.value(metadata i32 32, metadata !2903, metadata !DIExpression()), !dbg !2907
  store %"class.std::__2::tuple" undef, %"class.std::__2::tuple"* %t, align 32, !dbg !2908
  %0 = bitcast %"class.std::__2::tuple"* %t to i8*, !dbg !2908
  call addrspace(1) void @llvm.lifetime.start.p0i8(i64 128, i8* %0) #30, !dbg !2908
  call addrspace(1) void @llvm.dbg.declare(metadata %"class.std::__2::tuple"* %t, metadata !2904, metadata !DIExpression()), !dbg !2909
  %call = call nonnull align 32 dereferenceable(64) addrspace(1) %"class.aie::detail::vector.11"* @_ZNSt3__27forwardIN3aie6detail6vectorIsLj32EEEEEOT_RNS_16remove_referenceIS5_E4typeE(%"class.aie::detail::vector.11"* nonnull align 32 dereferenceable(64) %subvectors) #31, !dbg !2910
  %call4 = call nonnull align 32 dereferenceable(64) addrspace(1) %"class.aie::detail::vector.11"* @_ZNSt3__27forwardIN3aie6detail6vectorIsLj32EEEEEOT_RNS_16remove_referenceIS5_E4typeE(%"class.aie::detail::vector.11"* nonnull align 32 dereferenceable(64) %subvectors1) #31, !dbg !2910
  call addrspace(1) void @_ZNSt3__210make_tupleIJN3aie6detail6vectorIsLj32EEES4_EEENS_5tupleIJDpNS_18__unwrap_ref_decayIT_E4typeEEEEDpOS7_(%"class.std::__2::tuple"* sret(%"class.std::__2::tuple") align 32 %t, %"class.aie::detail::vector.11"* nonnull align 32 dereferenceable(64) %call, %"class.aie::detail::vector.11"* nonnull align 32 dereferenceable(64) %call4) #26, !dbg !2911
  %data = getelementptr inbounds %"class.aie::detail::vector.14", %"class.aie::detail::vector.14"* %this, i32 0, i32 0, !dbg !2912
  %call5 = call nonnull align 32 dereferenceable(64) addrspace(1) %struct.v32int16* @_ZNSt3__25arrayI8v32int16Lj2EEixEj(%"struct.std::__2::array.15"* nonnull dereferenceable(128) %data, i32 0) #31, !dbg !2912
  %call6 = call nonnull align 32 dereferenceable(64) addrspace(1) %"class.aie::detail::vector.11"* @_ZNSt3__23getILj0EJN3aie6detail6vectorIsLj32EEES4_EEERKNS_13tuple_elementIXT_ENS_5tupleIJDpT0_EEEE4typeERKS9_(%"class.std::__2::tuple"* nonnull align 32 dereferenceable(128) %t) #31, !dbg !2915
  %data7 = getelementptr inbounds %"class.aie::detail::vector.11", %"class.aie::detail::vector.11"* %call6, i32 0, i32 0, !dbg !2916
  %1 = load %struct.v32int16, %struct.v32int16* %data7, align 32, !dbg !2916, !tbaa !1689
  store %struct.v32int16 %1, %struct.v32int16* %call5, align 32, !dbg !2916, !tbaa !1689
  %data8 = getelementptr inbounds %"class.aie::detail::vector.14", %"class.aie::detail::vector.14"* %this, i32 0, i32 0, !dbg !2917
  %call9 = call nonnull align 32 dereferenceable(64) addrspace(1) %struct.v32int16* @_ZNSt3__25arrayI8v32int16Lj2EEixEj(%"struct.std::__2::array.15"* nonnull dereferenceable(128) %data8, i32 1) #31, !dbg !2917
  %call10 = call nonnull align 32 dereferenceable(64) addrspace(1) %"class.aie::detail::vector.11"* @_ZNSt3__23getILj1EJN3aie6detail6vectorIsLj32EEES4_EEERKNS_13tuple_elementIXT_ENS_5tupleIJDpT0_EEEE4typeERKS9_(%"class.std::__2::tuple"* nonnull align 32 dereferenceable(128) %t) #31, !dbg !2918
  %data11 = getelementptr inbounds %"class.aie::detail::vector.11", %"class.aie::detail::vector.11"* %call10, i32 0, i32 0, !dbg !2919
  %2 = load %struct.v32int16, %struct.v32int16* %data11, align 32, !dbg !2919, !tbaa !1689
  store %struct.v32int16 %2, %struct.v32int16* %call9, align 32, !dbg !2919, !tbaa !1689
  %3 = bitcast %"class.std::__2::tuple"* %t to i8*, !dbg !2920
  call addrspace(1) void @llvm.lifetime.end.p0i8(i64 128, i8* %3) #30, !dbg !2920
  ret %"class.aie::detail::vector.14"* %this, !dbg !2921
}

; Function Attrs: alwaysinline nounwind mustprogress
define linkonce_odr hidden nonnull align 32 dereferenceable(64) %"class.aie::detail::vector.11"* @_ZNSt3__23getILj0EJN3aie6detail6vectorIsLj32EEES4_EEERKNS_13tuple_elementIXT_ENS_5tupleIJDpT0_EEEE4typeERKS9_(%"class.std::__2::tuple"* nonnull align 32 dereferenceable(128) %__t) addrspace(1) #9 comdat !dbg !2922 {
entry:
  call addrspace(1) void @llvm.dbg.value(metadata %"class.std::__2::tuple"* %__t, metadata !2926, metadata !DIExpression()), !dbg !2927
  %__base_ = getelementptr inbounds %"class.std::__2::tuple", %"class.std::__2::tuple"* %__t, i32 0, i32 0, !dbg !2928
  %0 = bitcast %"struct.std::__2::__tuple_impl"* %__base_ to %"class.std::__2::__tuple_leaf"*, !dbg !2929
  %call = call nonnull align 32 dereferenceable(64) addrspace(1) %"class.aie::detail::vector.11"* @_ZNKSt3__212__tuple_leafILj0EN3aie6detail6vectorIsLj32EEELb0EE3getEv(%"class.std::__2::__tuple_leaf"* nonnull dereferenceable(64) %0) #31, !dbg !2930
  ret %"class.aie::detail::vector.11"* %call, !dbg !2931
}

; Function Attrs: alwaysinline nounwind mustprogress
define linkonce_odr hidden nonnull align 32 dereferenceable(64) %"class.aie::detail::vector.11"* @_ZNSt3__23getILj1EJN3aie6detail6vectorIsLj32EEES4_EEERKNS_13tuple_elementIXT_ENS_5tupleIJDpT0_EEEE4typeERKS9_(%"class.std::__2::tuple"* nonnull align 32 dereferenceable(128) %__t) addrspace(1) #9 comdat !dbg !2932 {
entry:
  call addrspace(1) void @llvm.dbg.value(metadata %"class.std::__2::tuple"* %__t, metadata !2934, metadata !DIExpression()), !dbg !2935
  %__base_ = getelementptr inbounds %"class.std::__2::tuple", %"class.std::__2::tuple"* %__t, i32 0, i32 0, !dbg !2936
  %0 = bitcast %"struct.std::__2::__tuple_impl"* %__base_ to i8*, !dbg !2937
  %add.ptr = getelementptr inbounds i8, i8* %0, i32 64, !dbg !2937
  %1 = bitcast i8* %add.ptr to %"class.std::__2::__tuple_leaf"*, !dbg !2937
  %call = call nonnull align 32 dereferenceable(64) addrspace(1) %"class.aie::detail::vector.11"* @_ZNKSt3__212__tuple_leafILj1EN3aie6detail6vectorIsLj32EEELb0EE3getEv(%"class.std::__2::__tuple_leaf"* nonnull dereferenceable(64) %1) #31, !dbg !2938
  ret %"class.aie::detail::vector.11"* %call, !dbg !2939
}

; Function Attrs: alwaysinline nounwind mustprogress
define linkonce_odr hidden nonnull align 32 dereferenceable(64) %"class.aie::detail::vector.11"* @_ZNKSt3__212__tuple_leafILj1EN3aie6detail6vectorIsLj32EEELb0EE3getEv(%"class.std::__2::__tuple_leaf"* nonnull dereferenceable(64) %this) addrspace(1) #9 comdat align 2 !dbg !2940 {
entry:
  call addrspace(1) void @llvm.dbg.value(metadata %"class.std::__2::__tuple_leaf"* %this, metadata !2942, metadata !DIExpression()), !dbg !2944
  %__value_ = getelementptr inbounds %"class.std::__2::__tuple_leaf", %"class.std::__2::__tuple_leaf"* %this, i32 0, i32 0, !dbg !2945
  ret %"class.aie::detail::vector.11"* %__value_, !dbg !2946
}

; Function Attrs: alwaysinline nounwind mustprogress
define linkonce_odr hidden nonnull align 32 dereferenceable(64) %"class.aie::detail::vector.11"* @_ZNKSt3__212__tuple_leafILj0EN3aie6detail6vectorIsLj32EEELb0EE3getEv(%"class.std::__2::__tuple_leaf"* nonnull dereferenceable(64) %this) addrspace(1) #9 comdat align 2 !dbg !2947 {
entry:
  call addrspace(1) void @llvm.dbg.value(metadata %"class.std::__2::__tuple_leaf"* %this, metadata !2949, metadata !DIExpression()), !dbg !2951
  %__value_ = getelementptr inbounds %"class.std::__2::__tuple_leaf", %"class.std::__2::__tuple_leaf"* %this, i32 0, i32 0, !dbg !2952
  ret %"class.aie::detail::vector.11"* %__value_, !dbg !2953
}

; Function Attrs: alwaysinline nounwind mustprogress
define linkonce_odr dso_local %struct.v32int16 @_Z6unpack8v32uint8(%struct.v32uint8 %vec.coerce) addrspace(1) #19 comdat {
entry:
  %retval = alloca %struct.v32int16, align 32
  %custom_type.tmp = alloca %struct.ipd.custom_type.uint1_t.uint1_t, align 4
  call addrspace(1) void @_ZN7uint1_tC2Ei(%struct.ipd.custom_type.uint1_t.uint1_t* nonnull dereferenceable(1) %custom_type.tmp, i32 0) #26
  %0 = load %struct.ipd.custom_type.uint1_t.uint1_t, %struct.ipd.custom_type.uint1_t.uint1_t* %custom_type.tmp, align 4, !tbaa !2506
  %call = call addrspace(1) %struct.v32int16 @_ZN12me_primitive6unpackE8v32uint87uint1_t(%struct.v32uint8 %vec.coerce, %struct.ipd.custom_type.uint1_t.uint1_t %0) #28
  %1 = getelementptr inbounds %struct.v32int16, %struct.v32int16* %retval, i32 0, i32 0
  %2 = extractvalue %struct.v32int16 %call, 0
  store %struct.ipd.custom_type.v64int8.v64int8 %2, %struct.ipd.custom_type.v64int8.v64int8* %1, align 32
  %3 = load %struct.v32int16, %struct.v32int16* %retval, align 32
  ret %struct.v32int16 %3
}

; Function Attrs: alwaysinline nounwind mustprogress
define linkonce_odr dso_local %struct.v32int16 @_ZN12me_primitive6unpackE8v32uint87uint1_t(%struct.v32uint8 %a0.coerce, %struct.ipd.custom_type.uint1_t.uint1_t %a1.coerce) addrspace(1) #10 comdat {
entry:
  %retval = alloca %struct.v32int16, align 32
  %call = call x86_regcallcc addrspace(1) %struct.v32int16 @__regcall3__chessintr_v32int16_unpack_v32uint8_uint1_t(%struct.v32uint8 %a0.coerce, %struct.ipd.custom_type.uint1_t.uint1_t %a1.coerce) #34
  %0 = getelementptr inbounds %struct.v32int16, %struct.v32int16* %retval, i32 0, i32 0
  %1 = extractvalue %struct.v32int16 %call, 0
  store %struct.ipd.custom_type.v64int8.v64int8 %1, %struct.ipd.custom_type.v64int8.v64int8* %0, align 32
  %2 = load %struct.v32int16, %struct.v32int16* %retval, align 32
  ret %struct.v32int16 %2
}

; Function Attrs: nounwind readnone willreturn
declare dso_local x86_regcallcc %struct.v32int16 @__regcall3__chessintr_v32int16_unpack_v32uint8_uint1_t(%struct.v32uint8, %struct.ipd.custom_type.uint1_t.uint1_t) addrspace(1) #13

; Function Attrs: alwaysinline nounwind mustprogress
define linkonce_odr hidden nonnull align 32 dereferenceable(32) %"class.aie::detail::vector.35"* @_ZNSt3__212__tuple_leafILj1EN3aie6detail6vectorIhLj32EEELb0EE3getEv(%"class.std::__2::__tuple_leaf.34"* nonnull dereferenceable(32) %this) addrspace(1) #9 comdat align 2 !dbg !2954 {
entry:
  call addrspace(1) void @llvm.dbg.value(metadata %"class.std::__2::__tuple_leaf.34"* %this, metadata !2956, metadata !DIExpression()), !dbg !2958
  %__value_ = getelementptr inbounds %"class.std::__2::__tuple_leaf.34", %"class.std::__2::__tuple_leaf.34"* %this, i32 0, i32 0, !dbg !2959
  ret %"class.aie::detail::vector.35"* %__value_, !dbg !2960
}

; Function Attrs: alwaysinline nounwind mustprogress
define linkonce_odr hidden nonnull align 32 dereferenceable(32) %"class.aie::detail::vector.35"* @_ZNSt3__212__tuple_leafILj0EN3aie6detail6vectorIhLj32EEELb0EE3getEv(%"class.std::__2::__tuple_leaf.34"* nonnull dereferenceable(32) %this) addrspace(1) #9 comdat align 2 !dbg !2961 {
entry:
  call addrspace(1) void @llvm.dbg.value(metadata %"class.std::__2::__tuple_leaf.34"* %this, metadata !2963, metadata !DIExpression()), !dbg !2965
  %__value_ = getelementptr inbounds %"class.std::__2::__tuple_leaf.34", %"class.std::__2::__tuple_leaf.34"* %this, i32 0, i32 0, !dbg !2966
  ret %"class.aie::detail::vector.35"* %__value_, !dbg !2967
}

; Function Attrs: alwaysinline nounwind mustprogress
define linkonce_odr dso_local void @_ZNK3aie6detail6vectorIhLj64EE12split_helperILj32EJLj0ELj1EEEEDaONSt3__216integer_sequenceIjJXspT0_EEEE(%"class.std::__2::tuple.32"* noalias sret(%"class.std::__2::tuple.32") align 32 %agg.result, %"class.aie::detail::vector.8"* nonnull dereferenceable(64) %this, %"struct.std::__2::integer_sequence"* nonnull align 1 dereferenceable(1) %0) addrspace(1) #9 comdat align 2 !dbg !2968 {
entry:
  %ref.tmp = alloca %"class.aie::detail::vector.35", align 32
  %ref.tmp2 = alloca %"class.aie::detail::vector.35", align 32
  call addrspace(1) void @llvm.dbg.value(metadata %"class.aie::detail::vector.8"* %this, metadata !2975, metadata !DIExpression()), !dbg !2977
  call addrspace(1) void @llvm.dbg.value(metadata %"struct.std::__2::integer_sequence"* %0, metadata !2976, metadata !DIExpression()), !dbg !2977
  %1 = bitcast %"class.aie::detail::vector.35"* %ref.tmp to i8*, !dbg !2978
  call addrspace(1) void @llvm.lifetime.start.p0i8(i64 32, i8* %1) #30, !dbg !2978
  %call = call addrspace(1) %"class.aie::detail::vector.35" @_ZNK3aie6detail6vectorIhLj64EE7extractILj32EEENS1_IhXT_EEEj(%"class.aie::detail::vector.8"* nonnull dereferenceable(64) %this, i32 0) #26, !dbg !2978
  %2 = getelementptr inbounds %"class.aie::detail::vector.35", %"class.aie::detail::vector.35"* %ref.tmp, i32 0, i32 0, !dbg !2978
  %3 = extractvalue %"class.aie::detail::vector.35" %call, 0, !dbg !2978
  store %struct.v32uint8 %3, %struct.v32uint8* %2, align 32, !dbg !2978
  %4 = bitcast %"class.aie::detail::vector.35"* %ref.tmp2 to i8*, !dbg !2978
  call addrspace(1) void @llvm.lifetime.start.p0i8(i64 32, i8* %4) #30, !dbg !2978
  %call3 = call addrspace(1) %"class.aie::detail::vector.35" @_ZNK3aie6detail6vectorIhLj64EE7extractILj32EEENS1_IhXT_EEEj(%"class.aie::detail::vector.8"* nonnull dereferenceable(64) %this, i32 1) #26, !dbg !2978
  %5 = getelementptr inbounds %"class.aie::detail::vector.35", %"class.aie::detail::vector.35"* %ref.tmp2, i32 0, i32 0, !dbg !2978
  %6 = extractvalue %"class.aie::detail::vector.35" %call3, 0, !dbg !2978
  store %struct.v32uint8 %6, %struct.v32uint8* %5, align 32, !dbg !2978
  call addrspace(1) void @_ZNSt3__210make_tupleIJN3aie6detail6vectorIhLj32EEES4_EEENS_5tupleIJDpNS_18__unwrap_ref_decayIT_E4typeEEEEDpOS7_(%"class.std::__2::tuple.32"* sret(%"class.std::__2::tuple.32") align 32 %agg.result, %"class.aie::detail::vector.35"* nonnull align 32 dereferenceable(32) %ref.tmp, %"class.aie::detail::vector.35"* nonnull align 32 dereferenceable(32) %ref.tmp2) #26, !dbg !2979
  %7 = bitcast %"class.aie::detail::vector.35"* %ref.tmp2 to i8*, !dbg !2980
  call addrspace(1) void @llvm.lifetime.end.p0i8(i64 32, i8* %7) #30, !dbg !2980
  %8 = bitcast %"class.aie::detail::vector.35"* %ref.tmp to i8*, !dbg !2980
  call addrspace(1) void @llvm.lifetime.end.p0i8(i64 32, i8* %8) #30, !dbg !2980
  ret void, !dbg !2980
}

; Function Attrs: alwaysinline nounwind mustprogress
define linkonce_odr dso_local %"class.aie::detail::vector.35" @_ZNK3aie6detail6vectorIhLj64EE7extractILj32EEENS1_IhXT_EEEj(%"class.aie::detail::vector.8"* nonnull dereferenceable(64) %this, i32 %idx) addrspace(1) #9 comdat align 2 !dbg !2981 {
entry:
  %retval = alloca %"class.aie::detail::vector.35", align 32
  %custom_type.tmp = alloca %"class.aie::detail::vector.35", align 32
  %tmp = alloca %struct.v32uint8, align 32
  %tmp8 = alloca %"class.aie::detail::vector.7", align 32
  %custom_type.tmp9 = alloca %"class.aie::detail::vector.7", align 32
  %agg.tmp = alloca %struct.v8cint32, align 32
  %agg.tmp10 = alloca %struct.v8cint32, align 32
  %ref.tmp = alloca %"class.aie::detail::vector.7", align 32
  %custom_type.tmp14 = alloca %"class.aie::detail::vector.35", align 32
  %agg.tmp15 = alloca %struct.v32uint8, align 32
  %ref.tmp16 = alloca %struct.v4cint32, align 32
  %agg.tmp17 = alloca %struct.v8cint32, align 32
  call addrspace(1) void @llvm.dbg.value(metadata %"class.aie::detail::vector.8"* %this, metadata !2986, metadata !DIExpression()), !dbg !3209
  call addrspace(1) void @llvm.dbg.value(metadata i32 %idx, metadata !2987, metadata !DIExpression()), !dbg !3209
  %cmp = icmp ult i32 %idx, 2, !dbg !3210
  %0 = call addrspace(1) i1 @llvm.is.constant.i1(i1 %cmp), !dbg !3210
  br i1 %0, label %do.body, label %if.end4, !dbg !3212

do.body:                                          ; preds = %entry
  %cmp2 = icmp ult i32 %idx, 2, !dbg !3213
  %1 = call addrspace(1) i1 @llvm.chess_manifest(i1 %cmp2), !dbg !3213
  br i1 %1, label %if.end4, label %if.then3, !dbg !3217

if.then3:                                         ; preds = %do.body
  call addrspace(1) void @llvm.chess_error(metadata !1677), !dbg !3213
  unreachable, !dbg !3213

if.end4:                                          ; preds = %do.body, %entry
  %cmp5 = icmp ult i32 %idx, 2, !dbg !3212
  call addrspace(1) void @llvm.assume(i1 %cmp5), !dbg !3212
  call addrspace(1) void @llvm.dbg.value(metadata i32 undef, metadata !2988, metadata !DIExpression()), !dbg !3209
  call addrspace(1) void @llvm.dbg.value(metadata i32 256, metadata !2988, metadata !DIExpression()), !dbg !3209
  call addrspace(1) void @llvm.dbg.declare(metadata %"class.aie::detail::vector.35"* %retval, metadata !2989, metadata !DIExpression()), !dbg !3218
  call addrspace(1) void @_ZN3aie6detail6vectorIhLj32EEC2Ev(%"class.aie::detail::vector.35"* nonnull dereferenceable(32) %custom_type.tmp) #26, !dbg !3218
  %2 = load %"class.aie::detail::vector.35", %"class.aie::detail::vector.35"* %custom_type.tmp, align 32, !dbg !3218, !tbaa !2455
  store %"class.aie::detail::vector.35" %2, %"class.aie::detail::vector.35"* %retval, align 32, !dbg !3218, !tbaa !2455
  %3 = call addrspace(1) i1 @llvm.is.constant.i32(i32 %idx), !dbg !3219
  br i1 %3, label %if.then6, label %if.else, !dbg !3220

if.then6:                                         ; preds = %if.end4
  %data = getelementptr inbounds %"class.aie::detail::vector.35", %"class.aie::detail::vector.35"* %retval, i32 0, i32 0, !dbg !3221
  %4 = bitcast %struct.v32uint8* %tmp to i8*, !dbg !3226
  call addrspace(1) void @llvm.lifetime.start.p0i8(i64 32, i8* %4) #30, !dbg !3226
  %data7 = getelementptr inbounds %"class.aie::detail::vector.8", %"class.aie::detail::vector.8"* %this, i32 0, i32 0, !dbg !3227
  %5 = load %struct.v64uint8, %struct.v64uint8* %data7, align 32, !dbg !3226, !tbaa !3228
  %call = call addrspace(1) %struct.v32uint8 @_Z5ext_w8v64uint8i(%struct.v64uint8 %5, i32 %idx) #28, !dbg !3226
  %6 = getelementptr inbounds %struct.v32uint8, %struct.v32uint8* %tmp, i32 0, i32 0, !dbg !3226
  %7 = extractvalue %struct.v32uint8 %call, 0, !dbg !3226
  store %struct.ipd.custom_type.v32int8.v32int8 %7, %struct.ipd.custom_type.v32int8.v32int8* %6, align 32, !dbg !3226
  %8 = load %struct.v32uint8, %struct.v32uint8* %tmp, align 32, !dbg !3226, !tbaa !2465
  store %struct.v32uint8 %8, %struct.v32uint8* %data, align 32, !dbg !3226, !tbaa !2465
  %9 = bitcast %struct.v32uint8* %tmp to i8*, !dbg !3226
  call addrspace(1) void @llvm.lifetime.end.p0i8(i64 32, i8* %9) #30, !dbg !3226
  br label %cleanup, !dbg !3229

if.else:                                          ; preds = %if.end4
  call addrspace(1) void @llvm.dbg.value(metadata i32 undef, metadata !2992, metadata !DIExpression()), !dbg !3230
  call addrspace(1) void @llvm.dbg.value(metadata i32 4, metadata !2992, metadata !DIExpression()), !dbg !3230
  store %"class.aie::detail::vector.7" undef, %"class.aie::detail::vector.7"* %tmp8, align 32, !dbg !3231
  %10 = bitcast %"class.aie::detail::vector.7"* %tmp8 to i8*, !dbg !3231
  call addrspace(1) void @llvm.lifetime.start.p0i8(i64 64, i8* %10) #30, !dbg !3231
  call addrspace(1) void @llvm.dbg.declare(metadata %"class.aie::detail::vector.7"* %tmp8, metadata !2995, metadata !DIExpression()), !dbg !3232
  %11 = bitcast %"class.aie::detail::vector.7"* %ref.tmp to i8*, !dbg !3233
  call addrspace(1) void @llvm.lifetime.start.p0i8(i64 64, i8* %11) #30, !dbg !3233
  %call11 = call addrspace(1) %"class.aie::detail::vector.7" @_ZNK3aie6detail6vectorIhLj64EE7cast_toI6cint32EEDav(%"class.aie::detail::vector.8"* nonnull dereferenceable(64) %this) #26, !dbg !3233
  %12 = getelementptr inbounds %"class.aie::detail::vector.7", %"class.aie::detail::vector.7"* %ref.tmp, i32 0, i32 0, !dbg !3233
  %13 = extractvalue %"class.aie::detail::vector.7" %call11, 0, !dbg !3233
  store %struct.v8cint32 %13, %struct.v8cint32* %12, align 32, !dbg !3233
  %call12 = call addrspace(1) %struct.v8cint32 @_ZNK3aie6detail6vectorI6cint32Lj8EEcv8v8cint32Ev(%"class.aie::detail::vector.7"* nonnull dereferenceable(64) %ref.tmp) #26, !dbg !3233
  %14 = getelementptr inbounds %struct.v8cint32, %struct.v8cint32* %agg.tmp10, i32 0, i32 0, !dbg !3233
  %15 = extractvalue %struct.v8cint32 %call12, 0, !dbg !3233
  store %struct.ipd.custom_type.v64int8.v64int8 %15, %struct.ipd.custom_type.v64int8.v64int8* %14, align 32, !dbg !3233
  %mul = mul i32 %idx, 4, !dbg !3234
  %16 = load %struct.v8cint32, %struct.v8cint32* %agg.tmp10, align 32, !dbg !3235, !tbaa !1689
  %call13 = call addrspace(1) %struct.v8cint32 @_Z8shuffle88v8cint32ij(%struct.v8cint32 %16, i32 %mul, i32 12816) #26, !dbg !3235
  %17 = getelementptr inbounds %struct.v8cint32, %struct.v8cint32* %agg.tmp, i32 0, i32 0, !dbg !3235
  %18 = extractvalue %struct.v8cint32 %call13, 0, !dbg !3235
  store %struct.ipd.custom_type.v64int8.v64int8 %18, %struct.ipd.custom_type.v64int8.v64int8* %17, align 32, !dbg !3235
  %19 = load %struct.v8cint32, %struct.v8cint32* %agg.tmp, align 32, !dbg !3235, !tbaa !1689
  call addrspace(1) void @_ZN3aie6detail6vectorI6cint32Lj8EEC2E8v8cint32(%"class.aie::detail::vector.7"* nonnull dereferenceable(64) %custom_type.tmp9, %struct.v8cint32 %19) #26, !dbg !3235
  %20 = load %"class.aie::detail::vector.7", %"class.aie::detail::vector.7"* %custom_type.tmp9, align 32, !dbg !3235, !tbaa !3236
  store %"class.aie::detail::vector.7" %20, %"class.aie::detail::vector.7"* %tmp8, align 32, !dbg !3235, !tbaa !3236
  %21 = bitcast %"class.aie::detail::vector.7"* %ref.tmp to i8*, !dbg !3235
  call addrspace(1) void @llvm.lifetime.end.p0i8(i64 64, i8* %21) #30, !dbg !3235
  %22 = bitcast %struct.v4cint32* %ref.tmp16 to i8*, !dbg !3238
  call addrspace(1) void @llvm.lifetime.start.p0i8(i64 32, i8* %22) #30, !dbg !3238
  %call18 = call addrspace(1) %struct.v8cint32 @_ZNK3aie6detail6vectorI6cint32Lj8EEcv8v8cint32Ev(%"class.aie::detail::vector.7"* nonnull dereferenceable(64) %tmp8) #26, !dbg !3239
  %23 = getelementptr inbounds %struct.v8cint32, %struct.v8cint32* %agg.tmp17, i32 0, i32 0, !dbg !3239
  %24 = extractvalue %struct.v8cint32 %call18, 0, !dbg !3239
  store %struct.ipd.custom_type.v64int8.v64int8 %24, %struct.ipd.custom_type.v64int8.v64int8* %23, align 32, !dbg !3239
  %25 = load %struct.v8cint32, %struct.v8cint32* %agg.tmp17, align 32, !dbg !3238, !tbaa !1689
  %call19 = call addrspace(1) %struct.v4cint32 @_Z5ext_w8v8cint32i(%struct.v8cint32 %25, i32 0) #28, !dbg !3238
  %26 = getelementptr inbounds %struct.v4cint32, %struct.v4cint32* %ref.tmp16, i32 0, i32 0, !dbg !3238
  %27 = extractvalue %struct.v4cint32 %call19, 0, !dbg !3238
  store %struct.ipd.custom_type.v32int8.v32int8 %27, %struct.ipd.custom_type.v32int8.v32int8* %26, align 32, !dbg !3238
  %ref.tmp16.val = load %struct.v4cint32, %struct.v4cint32* %ref.tmp16, align 32, !dbg !3240, !tbaa !2465
  %call20 = call addrspace(1) %struct.ipd.custom_type.v32int8.v32int8 @_ZN3aie6detailL18vector_cast_helperIhLj32E8v4cint32EENS0_14vector_storageIT_XT0_EE4typeEOT1_(%struct.v4cint32 %ref.tmp16.val) #26, !dbg !3240
  %oldret = insertvalue %struct.v32uint8 undef, %struct.ipd.custom_type.v32int8.v32int8 %call20, 0, !dbg !3240
  %28 = getelementptr inbounds %struct.v32uint8, %struct.v32uint8* %agg.tmp15, i32 0, i32 0, !dbg !3240
  %29 = extractvalue %struct.v32uint8 %oldret, 0, !dbg !3240
  store %struct.ipd.custom_type.v32int8.v32int8 %29, %struct.ipd.custom_type.v32int8.v32int8* %28, align 32, !dbg !3240
  %30 = load %struct.v32uint8, %struct.v32uint8* %agg.tmp15, align 32, !dbg !3240, !tbaa !2465
  call addrspace(1) void @_ZN3aie6detail6vectorIhLj32EEC2E8v32uint8(%"class.aie::detail::vector.35"* nonnull dereferenceable(32) %custom_type.tmp14, %struct.v32uint8 %30) #26, !dbg !3240
  %31 = load %"class.aie::detail::vector.35", %"class.aie::detail::vector.35"* %custom_type.tmp14, align 32, !dbg !3240, !tbaa !2455
  store %"class.aie::detail::vector.35" %31, %"class.aie::detail::vector.35"* %retval, align 32, !dbg !3240, !tbaa !2455
  %32 = bitcast %struct.v4cint32* %ref.tmp16 to i8*, !dbg !3241
  call addrspace(1) void @llvm.lifetime.end.p0i8(i64 32, i8* %32) #30, !dbg !3241
  %33 = bitcast %"class.aie::detail::vector.7"* %tmp8 to i8*, !dbg !3242
  call addrspace(1) void @llvm.lifetime.end.p0i8(i64 64, i8* %33) #30, !dbg !3242
  br label %cleanup, !dbg !3243

cleanup:                                          ; preds = %if.else, %if.then6
  %34 = load %"class.aie::detail::vector.35", %"class.aie::detail::vector.35"* %retval, align 32, !dbg !3244
  ret %"class.aie::detail::vector.35" %34, !dbg !3244
}

; Function Attrs: alwaysinline nounwind mustprogress
define linkonce_odr hidden void @_ZNSt3__210make_tupleIJN3aie6detail6vectorIhLj32EEES4_EEENS_5tupleIJDpNS_18__unwrap_ref_decayIT_E4typeEEEEDpOS7_(%"class.std::__2::tuple.32"* noalias sret(%"class.std::__2::tuple.32") align 32 %agg.result, %"class.aie::detail::vector.35"* nonnull align 32 dereferenceable(32) %__t, %"class.aie::detail::vector.35"* nonnull align 32 dereferenceable(32) %__t1) addrspace(1) #9 comdat !dbg !3245 {
entry:
  call addrspace(1) void @llvm.dbg.value(metadata %"class.aie::detail::vector.35"* %__t, metadata !3249, metadata !DIExpression()), !dbg !3251
  call addrspace(1) void @llvm.dbg.value(metadata %"class.aie::detail::vector.35"* %__t1, metadata !3250, metadata !DIExpression()), !dbg !3251
  %call = call nonnull align 32 dereferenceable(32) addrspace(1) %"class.aie::detail::vector.35"* @_ZNSt3__27forwardIN3aie6detail6vectorIhLj32EEEEEOT_RNS_16remove_referenceIS5_E4typeE(%"class.aie::detail::vector.35"* nonnull align 32 dereferenceable(32) %__t) #31, !dbg !3252
  %call3 = call nonnull align 32 dereferenceable(32) addrspace(1) %"class.aie::detail::vector.35"* @_ZNSt3__27forwardIN3aie6detail6vectorIhLj32EEEEEOT_RNS_16remove_referenceIS5_E4typeE(%"class.aie::detail::vector.35"* nonnull align 32 dereferenceable(32) %__t1) #31, !dbg !3252
  call addrspace(1) void @_ZNSt3__25tupleIJN3aie6detail6vectorIhLj32EEES4_EEC2IJS4_S4_ELb0ELb0EEEDpOT_(%"class.std::__2::tuple.32"* nonnull dereferenceable(64) %agg.result, %"class.aie::detail::vector.35"* nonnull align 32 dereferenceable(32) %call, %"class.aie::detail::vector.35"* nonnull align 32 dereferenceable(32) %call3) #31, !dbg !3253
  ret void, !dbg !3254
}

; Function Attrs: alwaysinline nounwind
define linkonce_odr dso_local void @_ZNSt3__25tupleIJN3aie6detail6vectorIhLj32EEES4_EEC2IJS4_S4_ELb0ELb0EEEDpOT_(%"class.std::__2::tuple.32"* nonnull dereferenceable(64) %this, %"class.aie::detail::vector.35"* nonnull align 32 dereferenceable(32) %__u, %"class.aie::detail::vector.35"* nonnull align 32 dereferenceable(32) %__u1) unnamed_addr addrspace(1) #11 comdat align 2 !dbg !3255 {
entry:
  call addrspace(1) void @llvm.dbg.value(metadata %"class.std::__2::tuple.32"* %this, metadata !3262, metadata !DIExpression()), !dbg !3266
  call addrspace(1) void @llvm.dbg.value(metadata %"class.aie::detail::vector.35"* %__u, metadata !3264, metadata !DIExpression()), !dbg !3266
  call addrspace(1) void @llvm.dbg.value(metadata %"class.aie::detail::vector.35"* %__u1, metadata !3265, metadata !DIExpression()), !dbg !3266
  %__base_ = getelementptr inbounds %"class.std::__2::tuple.32", %"class.std::__2::tuple.32"* %this, i32 0, i32 0, !dbg !3267
  %call = call nonnull align 32 dereferenceable(32) addrspace(1) %"class.aie::detail::vector.35"* @_ZNSt3__27forwardIN3aie6detail6vectorIhLj32EEEEEOT_RNS_16remove_referenceIS5_E4typeE(%"class.aie::detail::vector.35"* nonnull align 32 dereferenceable(32) %__u) #31, !dbg !3268
  %call7 = call nonnull align 32 dereferenceable(32) addrspace(1) %"class.aie::detail::vector.35"* @_ZNSt3__27forwardIN3aie6detail6vectorIhLj32EEEEEOT_RNS_16remove_referenceIS5_E4typeE(%"class.aie::detail::vector.35"* nonnull align 32 dereferenceable(32) %__u1) #31, !dbg !3268
  call addrspace(1) void @_ZNSt3__212__tuple_implINS_15__tuple_indicesIJLj0ELj1EEEEJN3aie6detail6vectorIhLj32EEES6_EEC2IJLj0ELj1EEJS6_S6_EJEJEJS6_S6_EEENS1_IJXspT_EEEENS_13__tuple_typesIJDpT0_EEENS1_IJXspT1_EEEENSA_IJDpT2_EEEDpOT3_(%"struct.std::__2::__tuple_impl.33"* nonnull dereferenceable(64) %__base_, %"struct.std::__2::__tuple_indices" undef, %"struct.std::__2::__tuple_types" undef, %"struct.std::__2::__tuple_indices" undef, %"struct.std::__2::__tuple_types" undef, %"class.aie::detail::vector.35"* nonnull align 32 dereferenceable(32) %call, %"class.aie::detail::vector.35"* nonnull align 32 dereferenceable(32) %call7) #31, !dbg !3267
  ret void, !dbg !3269
}

; Function Attrs: alwaysinline nounwind
define linkonce_odr dso_local void @_ZNSt3__212__tuple_implINS_15__tuple_indicesIJLj0ELj1EEEEJN3aie6detail6vectorIhLj32EEES6_EEC2IJLj0ELj1EEJS6_S6_EJEJEJS6_S6_EEENS1_IJXspT_EEEENS_13__tuple_typesIJDpT0_EEENS1_IJXspT1_EEEENSA_IJDpT2_EEEDpOT3_(%"struct.std::__2::__tuple_impl.33"* nonnull dereferenceable(64) %this, %"struct.std::__2::__tuple_indices" %.coerce, %"struct.std::__2::__tuple_types" %.coerce1, %"struct.std::__2::__tuple_indices" %.coerce2, %"struct.std::__2::__tuple_types" %.coerce3, %"class.aie::detail::vector.35"* nonnull align 32 dereferenceable(32) %__u, %"class.aie::detail::vector.35"* nonnull align 32 dereferenceable(32) %__u4) unnamed_addr addrspace(1) #11 comdat align 2 !dbg !3270 {
entry:
  call addrspace(1) void @llvm.dbg.value(metadata %"struct.std::__2::__tuple_indices" %.coerce, metadata !3280, metadata !DIExpression()), !dbg !3286
  call addrspace(1) void @llvm.dbg.value(metadata %"struct.std::__2::__tuple_types" %.coerce1, metadata !3281, metadata !DIExpression()), !dbg !3286
  call addrspace(1) void @llvm.dbg.value(metadata %"struct.std::__2::__tuple_indices" %.coerce2, metadata !3282, metadata !DIExpression()), !dbg !3286
  call addrspace(1) void @llvm.dbg.value(metadata %"struct.std::__2::__tuple_types" %.coerce3, metadata !3283, metadata !DIExpression()), !dbg !3286
  call addrspace(1) void @llvm.dbg.value(metadata %"struct.std::__2::__tuple_impl.33"* %this, metadata !3278, metadata !DIExpression()), !dbg !3286
  call addrspace(1) void @llvm.dbg.value(metadata %"class.aie::detail::vector.35"* %__u, metadata !3284, metadata !DIExpression()), !dbg !3286
  call addrspace(1) void @llvm.dbg.value(metadata %"class.aie::detail::vector.35"* %__u4, metadata !3285, metadata !DIExpression()), !dbg !3286
  %0 = bitcast %"struct.std::__2::__tuple_impl.33"* %this to %"class.std::__2::__tuple_leaf.34"*, !dbg !3287
  %call = call nonnull align 32 dereferenceable(32) addrspace(1) %"class.aie::detail::vector.35"* @_ZNSt3__27forwardIN3aie6detail6vectorIhLj32EEEEEOT_RNS_16remove_referenceIS5_E4typeE(%"class.aie::detail::vector.35"* nonnull align 32 dereferenceable(32) %__u) #31, !dbg !3288
  call addrspace(1) void @_ZNSt3__212__tuple_leafILj0EN3aie6detail6vectorIhLj32EEELb0EEC2IS4_vEEOT_(%"class.std::__2::__tuple_leaf.34"* nonnull dereferenceable(32) %0, %"class.aie::detail::vector.35"* nonnull align 32 dereferenceable(32) %call) #31, !dbg !3289
  %1 = bitcast %"struct.std::__2::__tuple_impl.33"* %this to i8*, !dbg !3287
  %2 = getelementptr inbounds i8, i8* %1, i32 32, !dbg !3287
  %3 = bitcast i8* %2 to %"class.std::__2::__tuple_leaf.34"*, !dbg !3287
  %call7 = call nonnull align 32 dereferenceable(32) addrspace(1) %"class.aie::detail::vector.35"* @_ZNSt3__27forwardIN3aie6detail6vectorIhLj32EEEEEOT_RNS_16remove_referenceIS5_E4typeE(%"class.aie::detail::vector.35"* nonnull align 32 dereferenceable(32) %__u4) #31, !dbg !3288
  call addrspace(1) void @_ZNSt3__212__tuple_leafILj1EN3aie6detail6vectorIhLj32EEELb0EEC2IS4_vEEOT_(%"class.std::__2::__tuple_leaf.34"* nonnull dereferenceable(32) %3, %"class.aie::detail::vector.35"* nonnull align 32 dereferenceable(32) %call7) #31, !dbg !3289
  ret void, !dbg !3290
}

; Function Attrs: alwaysinline nounwind
define linkonce_odr dso_local void @_ZNSt3__212__tuple_leafILj0EN3aie6detail6vectorIhLj32EEELb0EEC2IS4_vEEOT_(%"class.std::__2::__tuple_leaf.34"* nonnull dereferenceable(32) %this, %"class.aie::detail::vector.35"* nonnull align 32 dereferenceable(32) %__t) unnamed_addr addrspace(1) #11 comdat align 2 !dbg !3291 {
entry:
  call addrspace(1) void @llvm.dbg.value(metadata %"class.std::__2::__tuple_leaf.34"* %this, metadata !3297, metadata !DIExpression()), !dbg !3299
  call addrspace(1) void @llvm.dbg.value(metadata %"class.aie::detail::vector.35"* %__t, metadata !3298, metadata !DIExpression()), !dbg !3299
  %__value_ = getelementptr inbounds %"class.std::__2::__tuple_leaf.34", %"class.std::__2::__tuple_leaf.34"* %this, i32 0, i32 0, !dbg !3300
  %call = call nonnull align 32 dereferenceable(32) addrspace(1) %"class.aie::detail::vector.35"* @_ZNSt3__27forwardIN3aie6detail6vectorIhLj32EEEEEOT_RNS_16remove_referenceIS5_E4typeE(%"class.aie::detail::vector.35"* nonnull align 32 dereferenceable(32) %__t) #31, !dbg !3301
  %0 = load %"class.aie::detail::vector.35", %"class.aie::detail::vector.35"* %call, align 32, !dbg !3301, !tbaa !2455
  store %"class.aie::detail::vector.35" %0, %"class.aie::detail::vector.35"* %__value_, align 32, !dbg !3301, !tbaa !2455
  ret void, !dbg !3302
}

; Function Attrs: alwaysinline nounwind
define linkonce_odr dso_local void @_ZNSt3__212__tuple_leafILj1EN3aie6detail6vectorIhLj32EEELb0EEC2IS4_vEEOT_(%"class.std::__2::__tuple_leaf.34"* nonnull dereferenceable(32) %this, %"class.aie::detail::vector.35"* nonnull align 32 dereferenceable(32) %__t) unnamed_addr addrspace(1) #11 comdat align 2 !dbg !3303 {
entry:
  call addrspace(1) void @llvm.dbg.value(metadata %"class.std::__2::__tuple_leaf.34"* %this, metadata !3308, metadata !DIExpression()), !dbg !3310
  call addrspace(1) void @llvm.dbg.value(metadata %"class.aie::detail::vector.35"* %__t, metadata !3309, metadata !DIExpression()), !dbg !3310
  %__value_ = getelementptr inbounds %"class.std::__2::__tuple_leaf.34", %"class.std::__2::__tuple_leaf.34"* %this, i32 0, i32 0, !dbg !3311
  %call = call nonnull align 32 dereferenceable(32) addrspace(1) %"class.aie::detail::vector.35"* @_ZNSt3__27forwardIN3aie6detail6vectorIhLj32EEEEEOT_RNS_16remove_referenceIS5_E4typeE(%"class.aie::detail::vector.35"* nonnull align 32 dereferenceable(32) %__t) #31, !dbg !3312
  %0 = load %"class.aie::detail::vector.35", %"class.aie::detail::vector.35"* %call, align 32, !dbg !3312, !tbaa !2455
  store %"class.aie::detail::vector.35" %0, %"class.aie::detail::vector.35"* %__value_, align 32, !dbg !3312, !tbaa !2455
  ret void, !dbg !3313
}

; Function Attrs: alwaysinline nounwind mustprogress
define linkonce_odr dso_local %struct.v32uint8 @_Z5ext_w8v64uint8i(%struct.v64uint8 %a0.coerce, i32 %a1) addrspace(1) #10 comdat {
entry:
  %retval = alloca %struct.v32uint8, align 32
  %call = call x86_regcallcc addrspace(1) %struct.v32uint8 @__regcall3__chessintr_v32uint8_ext_w_v64uint8___sint(%struct.v64uint8 %a0.coerce, i32 signext %a1) #34
  %0 = getelementptr inbounds %struct.v32uint8, %struct.v32uint8* %retval, i32 0, i32 0
  %1 = extractvalue %struct.v32uint8 %call, 0
  store %struct.ipd.custom_type.v32int8.v32int8 %1, %struct.ipd.custom_type.v32int8.v32int8* %0, align 32
  %2 = load %struct.v32uint8, %struct.v32uint8* %retval, align 32
  ret %struct.v32uint8 %2
}

; Function Attrs: alwaysinline nounwind mustprogress
define linkonce_odr dso_local %"class.aie::detail::vector.7" @_ZNK3aie6detail6vectorIhLj64EE7cast_toI6cint32EEDav(%"class.aie::detail::vector.8"* nonnull dereferenceable(64) %this) addrspace(1) #9 comdat align 2 !dbg !3314 {
entry:
  %ret = alloca %"class.aie::detail::vector.7", align 32
  %custom_type.tmp = alloca %"class.aie::detail::vector.7", align 32
  %tmp = alloca %struct.v8cint32, align 32
  call addrspace(1) void @llvm.dbg.value(metadata %"class.aie::detail::vector.8"* %this, metadata !3321, metadata !DIExpression()), !dbg !3325
  call addrspace(1) void @llvm.dbg.value(metadata i32 undef, metadata !3322, metadata !DIExpression()), !dbg !3325
  call addrspace(1) void @llvm.dbg.value(metadata i32 64, metadata !3322, metadata !DIExpression()), !dbg !3325
  call addrspace(1) void @llvm.dbg.value(metadata i32 undef, metadata !3323, metadata !DIExpression()), !dbg !3325
  call addrspace(1) void @llvm.dbg.value(metadata i32 8, metadata !3323, metadata !DIExpression()), !dbg !3325
  store %"class.aie::detail::vector.7" undef, %"class.aie::detail::vector.7"* %ret, align 32, !dbg !3326
  %0 = bitcast %"class.aie::detail::vector.7"* %ret to i8*, !dbg !3326
  call addrspace(1) void @llvm.lifetime.start.p0i8(i64 64, i8* %0) #30, !dbg !3326
  call addrspace(1) void @llvm.dbg.declare(metadata %"class.aie::detail::vector.7"* %ret, metadata !3324, metadata !DIExpression()), !dbg !3327
  call addrspace(1) void @_ZN3aie6detail6vectorI6cint32Lj8EEC2Ev(%"class.aie::detail::vector.7"* nonnull dereferenceable(64) %custom_type.tmp) #26, !dbg !3327
  %1 = load %"class.aie::detail::vector.7", %"class.aie::detail::vector.7"* %custom_type.tmp, align 32, !dbg !3327, !tbaa !3236
  store %"class.aie::detail::vector.7" %1, %"class.aie::detail::vector.7"* %ret, align 32, !dbg !3327, !tbaa !3236
  %data = getelementptr inbounds %"class.aie::detail::vector.7", %"class.aie::detail::vector.7"* %ret, i32 0, i32 0, !dbg !3328
  %2 = bitcast %struct.v8cint32* %tmp to i8*, !dbg !3329
  call addrspace(1) void @llvm.lifetime.start.p0i8(i64 64, i8* %2) #30, !dbg !3329
  %data2 = getelementptr inbounds %"class.aie::detail::vector.8", %"class.aie::detail::vector.8"* %this, i32 0, i32 0, !dbg !3330
  %data2.val = load %struct.v64uint8, %struct.v64uint8* %data2, align 32, !dbg !3329, !tbaa !1689
  %call = call addrspace(1) %struct.ipd.custom_type.v64int8.v64int8 @_ZN3aie6detailL18vector_cast_helperI6cint32Lj8ERK8v64uint8EENS0_14vector_storageIT_XT0_EE4typeEOT1_(%struct.v64uint8 %data2.val) #26, !dbg !3329
  %oldret = insertvalue %struct.v8cint32 undef, %struct.ipd.custom_type.v64int8.v64int8 %call, 0, !dbg !3329
  %3 = getelementptr inbounds %struct.v8cint32, %struct.v8cint32* %tmp, i32 0, i32 0, !dbg !3329
  %4 = extractvalue %struct.v8cint32 %oldret, 0, !dbg !3329
  store %struct.ipd.custom_type.v64int8.v64int8 %4, %struct.ipd.custom_type.v64int8.v64int8* %3, align 32, !dbg !3329
  %5 = load %struct.v8cint32, %struct.v8cint32* %tmp, align 32, !dbg !3329, !tbaa !1689
  store %struct.v8cint32 %5, %struct.v8cint32* %data, align 32, !dbg !3329, !tbaa !1689
  %6 = bitcast %struct.v8cint32* %tmp to i8*, !dbg !3329
  call addrspace(1) void @llvm.lifetime.end.p0i8(i64 64, i8* %6) #30, !dbg !3329
  %7 = load %"class.aie::detail::vector.7", %"class.aie::detail::vector.7"* %ret, align 32, !dbg !3331, !tbaa !3236
  %8 = bitcast %"class.aie::detail::vector.7"* %ret to i8*, !dbg !3332
  call addrspace(1) void @llvm.lifetime.end.p0i8(i64 64, i8* %8) #30, !dbg !3332
  ret %"class.aie::detail::vector.7" %7, !dbg !3331
}

; Function Attrs: alwaysinline nounwind mustprogress
define linkonce_odr dso_local %struct.v8cint32 @_ZNK3aie6detail6vectorI6cint32Lj8EEcv8v8cint32Ev(%"class.aie::detail::vector.7"* nonnull dereferenceable(64) %this) addrspace(1) #9 comdat align 2 !dbg !3333 {
entry:
  %retval = alloca %struct.v8cint32, align 32
  call addrspace(1) void @llvm.dbg.value(metadata %"class.aie::detail::vector.7"* %this, metadata !3335, metadata !DIExpression()), !dbg !3337
  %call = call addrspace(1) %struct.v8cint32 @_ZNK3aie6detail6vectorI6cint32Lj8EE9to_nativeEv(%"class.aie::detail::vector.7"* nonnull dereferenceable(64) %this) #26, !dbg !3338
  %0 = getelementptr inbounds %struct.v8cint32, %struct.v8cint32* %retval, i32 0, i32 0, !dbg !3338
  %1 = extractvalue %struct.v8cint32 %call, 0, !dbg !3338
  store %struct.ipd.custom_type.v64int8.v64int8 %1, %struct.ipd.custom_type.v64int8.v64int8* %0, align 32, !dbg !3338
  %2 = load %struct.v8cint32, %struct.v8cint32* %retval, align 32, !dbg !3339
  ret %struct.v8cint32 %2, !dbg !3339
}

; Function Attrs: alwaysinline nounwind mustprogress
define linkonce_odr dso_local %struct.v8cint32 @_Z8shuffle88v8cint32ij(%struct.v8cint32 %a0.coerce, i32 %a1, i32 %a2) addrspace(1) #9 comdat {
entry:
  %retval = alloca %struct.v8cint32, align 32
  %call = call x86_regcallcc addrspace(1) %struct.v8cint32 @__regcall3__chessintr_v8cint32_shuffle8_v8cint32___sint___uint(%struct.v8cint32 %a0.coerce, i32 signext %a1, i32 zeroext 12816) #34
  %0 = getelementptr inbounds %struct.v8cint32, %struct.v8cint32* %retval, i32 0, i32 0
  %1 = extractvalue %struct.v8cint32 %call, 0
  store %struct.ipd.custom_type.v64int8.v64int8 %1, %struct.ipd.custom_type.v64int8.v64int8* %0, align 32
  %2 = load %struct.v8cint32, %struct.v8cint32* %retval, align 32
  ret %struct.v8cint32 %2
}

; Function Attrs: alwaysinline nounwind
define linkonce_odr dso_local void @_ZN3aie6detail6vectorI6cint32Lj8EEC2E8v8cint32(%"class.aie::detail::vector.7"* nonnull dereferenceable(64) %this, %struct.v8cint32 %v.coerce) unnamed_addr addrspace(1) #11 comdat align 2 !dbg !3340 {
entry:
  call addrspace(1) void @llvm.dbg.value(metadata %struct.v8cint32 %v.coerce, metadata !3344, metadata !DIExpression()), !dbg !3345
  call addrspace(1) void @llvm.dbg.value(metadata %"class.aie::detail::vector.7"* %this, metadata !3342, metadata !DIExpression()), !dbg !3345
  %data = getelementptr inbounds %"class.aie::detail::vector.7", %"class.aie::detail::vector.7"* %this, i32 0, i32 0, !dbg !3346
  store %struct.v8cint32 %v.coerce, %struct.v8cint32* %data, align 32, !dbg !3347, !tbaa !1689
  ret void, !dbg !3348
}

; Function Attrs: alwaysinline nounwind mustprogress
define linkonce_odr dso_local %struct.v4cint32 @_Z5ext_w8v8cint32i(%struct.v8cint32 %a0.coerce, i32 %a1) addrspace(1) #10 comdat {
entry:
  %retval = alloca %struct.v4cint32, align 32
  %call = call x86_regcallcc addrspace(1) %struct.v4cint32 @__regcall3__chessintr_v4cint32_ext_w_v8cint32___sint(%struct.v8cint32 %a0.coerce, i32 signext 0) #34
  %0 = getelementptr inbounds %struct.v4cint32, %struct.v4cint32* %retval, i32 0, i32 0
  %1 = extractvalue %struct.v4cint32 %call, 0
  store %struct.ipd.custom_type.v32int8.v32int8 %1, %struct.ipd.custom_type.v32int8.v32int8* %0, align 32
  %2 = load %struct.v4cint32, %struct.v4cint32* %retval, align 32
  ret %struct.v4cint32 %2
}

; Function Attrs: alwaysinline nounwind mustprogress
define internal %struct.ipd.custom_type.v32int8.v32int8 @_ZN3aie6detailL18vector_cast_helperIhLj32E8v4cint32EENS0_14vector_storageIT_XT0_EE4typeEOT1_(%struct.v4cint32 %from.val) addrspace(1) #9 !dbg !3349 {
entry:
  %retval = alloca %struct.v32uint8, align 32
  call addrspace(1) void @llvm.dbg.value(metadata %struct.v4cint32* undef, metadata !3355, metadata !DIExpression()), !dbg !3360
  %call = call addrspace(1) %struct.v32uint8 @_Z11as_v32uint88v4cint32(%struct.v4cint32 %from.val) #26, !dbg !3361
  %0 = getelementptr inbounds %struct.v32uint8, %struct.v32uint8* %retval, i32 0, i32 0, !dbg !3361
  %1 = extractvalue %struct.v32uint8 %call, 0, !dbg !3361
  store %struct.ipd.custom_type.v32int8.v32int8 %1, %struct.ipd.custom_type.v32int8.v32int8* %0, align 32, !dbg !3361
  %2 = load %struct.v32uint8, %struct.v32uint8* %retval, align 32, !dbg !3363
  %oldret = extractvalue %struct.v32uint8 %2, 0, !dbg !3363
  ret %struct.ipd.custom_type.v32int8.v32int8 %oldret, !dbg !3363
}

; Function Attrs: alwaysinline nounwind
define linkonce_odr dso_local void @_ZN3aie6detail6vectorIhLj32EEC2E8v32uint8(%"class.aie::detail::vector.35"* nonnull dereferenceable(32) %this, %struct.v32uint8 %v.coerce) unnamed_addr addrspace(1) #11 comdat align 2 !dbg !3364 {
entry:
  call addrspace(1) void @llvm.dbg.value(metadata %struct.v32uint8 %v.coerce, metadata !3367, metadata !DIExpression()), !dbg !3368
  call addrspace(1) void @llvm.dbg.value(metadata %"class.aie::detail::vector.35"* %this, metadata !3366, metadata !DIExpression()), !dbg !3368
  %data = getelementptr inbounds %"class.aie::detail::vector.35", %"class.aie::detail::vector.35"* %this, i32 0, i32 0, !dbg !3369
  store %struct.v32uint8 %v.coerce, %struct.v32uint8* %data, align 32, !dbg !3370, !tbaa !2465
  ret void, !dbg !3371
}

; Function Attrs: alwaysinline nounwind mustprogress
define linkonce_odr dso_local %struct.v32uint8 @_Z11as_v32uint88v4cint32(%struct.v4cint32 %a.coerce) addrspace(1) #9 comdat {
entry:
  %a = alloca %struct.v4cint32, align 32
  %custom_type.tmp = alloca %struct.v32uint8, align 32
  store %struct.v4cint32 %a.coerce, %struct.v4cint32* %a, align 32
  %mw = getelementptr inbounds %struct.v4cint32, %struct.v4cint32* %a, i32 0, i32 0
  %0 = load %struct.ipd.custom_type.v32int8.v32int8, %struct.ipd.custom_type.v32int8.v32int8* %mw, align 32, !tbaa !2465
  call addrspace(1) void @_ZN8v32uint8C2E17chessllvmInternal7v32int8(%struct.v32uint8* nonnull dereferenceable(32) %custom_type.tmp, i32 0, %struct.ipd.custom_type.v32int8.v32int8 %0) #26
  %1 = load %struct.v32uint8, %struct.v32uint8* %custom_type.tmp, align 32, !tbaa !2465
  ret %struct.v32uint8 %1
}

; Function Attrs: alwaysinline nounwind
define linkonce_odr dso_local void @_ZN8v32uint8C2E17chessllvmInternal7v32int8(%struct.v32uint8* nonnull dereferenceable(32) %this, i32 %0, %struct.ipd.custom_type.v32int8.v32int8 %aw.coerce) unnamed_addr addrspace(1) #11 comdat align 2 !dbg !3372 {
entry:
  call addrspace(1) void @llvm.dbg.value(metadata %struct.ipd.custom_type.v32int8.v32int8 %aw.coerce, metadata !3389, metadata !DIExpression()), !dbg !3390
  call addrspace(1) void @llvm.dbg.value(metadata %struct.v32uint8* %this, metadata !3386, metadata !DIExpression()), !dbg !3390
  call addrspace(1) void @llvm.dbg.value(metadata i32 0, metadata !3388, metadata !DIExpression()), !dbg !3390
  %mw = getelementptr inbounds %struct.v32uint8, %struct.v32uint8* %this, i32 0, i32 0, !dbg !3391
  store %struct.ipd.custom_type.v32int8.v32int8 %aw.coerce, %struct.ipd.custom_type.v32int8.v32int8* %mw, align 32, !dbg !3392, !tbaa !2465
  ret void, !dbg !3393
}

; Function Attrs: nounwind readnone willreturn
declare dso_local x86_regcallcc %struct.v4cint32 @__regcall3__chessintr_v4cint32_ext_w_v8cint32___sint(%struct.v8cint32, i32 signext) addrspace(1) #13

; Function Attrs: nounwind readnone willreturn
declare dso_local x86_regcallcc %struct.v8cint32 @__regcall3__chessintr_v8cint32_shuffle8_v8cint32___sint___uint(%struct.v8cint32, i32 signext, i32 zeroext) addrspace(1) #13

; Function Attrs: alwaysinline nounwind mustprogress
define linkonce_odr dso_local %struct.v8cint32 @_ZNK3aie6detail6vectorI6cint32Lj8EE9to_nativeEv(%"class.aie::detail::vector.7"* nonnull dereferenceable(64) %this) addrspace(1) #9 comdat align 2 !dbg !3394 {
entry:
  call addrspace(1) void @llvm.dbg.value(metadata %"class.aie::detail::vector.7"* %this, metadata !3401, metadata !DIExpression()), !dbg !3402
  %data = getelementptr inbounds %"class.aie::detail::vector.7", %"class.aie::detail::vector.7"* %this, i32 0, i32 0, !dbg !3403
  %0 = load %struct.v8cint32, %struct.v8cint32* %data, align 32, !dbg !3403, !tbaa !1689
  ret %struct.v8cint32 %0, !dbg !3403
}

; Function Attrs: alwaysinline nounwind
define linkonce_odr dso_local void @_ZN3aie6detail6vectorI6cint32Lj8EEC2Ev(%"class.aie::detail::vector.7"* nonnull dereferenceable(64) %this) unnamed_addr addrspace(1) #11 comdat align 2 !dbg !3405 {
entry:
  call addrspace(1) void @llvm.dbg.value(metadata %"class.aie::detail::vector.7"* %this, metadata !3407, metadata !DIExpression()), !dbg !3408
  %data = getelementptr inbounds %"class.aie::detail::vector.7", %"class.aie::detail::vector.7"* %this, i32 0, i32 0, !dbg !3409
  %call = call addrspace(1) %struct.v8cint32 @_ZN3aie6detail14vector_storageI6cint32Lj8EE5undefEv() #26, !dbg !3410
  %0 = getelementptr inbounds %struct.v8cint32, %struct.v8cint32* %data, i32 0, i32 0, !dbg !3410
  %1 = extractvalue %struct.v8cint32 %call, 0, !dbg !3410
  store %struct.ipd.custom_type.v64int8.v64int8 %1, %struct.ipd.custom_type.v64int8.v64int8* %0, align 32, !dbg !3410
  ret void, !dbg !3411
}

; Function Attrs: alwaysinline nounwind mustprogress
define internal %struct.ipd.custom_type.v64int8.v64int8 @_ZN3aie6detailL18vector_cast_helperI6cint32Lj8ERK8v64uint8EENS0_14vector_storageIT_XT0_EE4typeEOT1_(%struct.v64uint8 %from.val) addrspace(1) #9 !dbg !3412 {
entry:
  %retval = alloca %struct.v8cint32, align 32
  call addrspace(1) void @llvm.dbg.value(metadata %struct.v64uint8* undef, metadata !3418, metadata !DIExpression()), !dbg !3422
  %call = call addrspace(1) %struct.v8cint32 @_Z11as_v8cint328v64uint8(%struct.v64uint8 %from.val) #26, !dbg !3423
  %0 = getelementptr inbounds %struct.v8cint32, %struct.v8cint32* %retval, i32 0, i32 0, !dbg !3423
  %1 = extractvalue %struct.v8cint32 %call, 0, !dbg !3423
  store %struct.ipd.custom_type.v64int8.v64int8 %1, %struct.ipd.custom_type.v64int8.v64int8* %0, align 32, !dbg !3423
  %2 = load %struct.v8cint32, %struct.v8cint32* %retval, align 32, !dbg !3425
  %oldret = extractvalue %struct.v8cint32 %2, 0, !dbg !3425
  ret %struct.ipd.custom_type.v64int8.v64int8 %oldret, !dbg !3425
}

; Function Attrs: alwaysinline nounwind mustprogress
define linkonce_odr dso_local %struct.v8cint32 @_Z11as_v8cint328v64uint8(%struct.v64uint8 %a.coerce) addrspace(1) #9 comdat {
entry:
  %a = alloca %struct.v64uint8, align 32
  %custom_type.tmp = alloca %struct.v8cint32, align 32
  store %struct.v64uint8 %a.coerce, %struct.v64uint8* %a, align 32
  %mw = getelementptr inbounds %struct.v64uint8, %struct.v64uint8* %a, i32 0, i32 0
  %0 = load %struct.ipd.custom_type.v64int8.v64int8, %struct.ipd.custom_type.v64int8.v64int8* %mw, align 32, !tbaa !1689
  call addrspace(1) void @_ZN8v8cint32C2E17chessllvmInternal7v64int8(%struct.v8cint32* nonnull dereferenceable(64) %custom_type.tmp, i32 0, %struct.ipd.custom_type.v64int8.v64int8 %0) #26
  %1 = load %struct.v8cint32, %struct.v8cint32* %custom_type.tmp, align 32, !tbaa !1689
  ret %struct.v8cint32 %1
}

; Function Attrs: alwaysinline nounwind
define linkonce_odr dso_local void @_ZN8v8cint32C2E17chessllvmInternal7v64int8(%struct.v8cint32* nonnull dereferenceable(64) %this, i32 %0, %struct.ipd.custom_type.v64int8.v64int8 %aw.coerce) unnamed_addr addrspace(1) #11 comdat align 2 !dbg !3426 {
entry:
  call addrspace(1) void @llvm.dbg.value(metadata %struct.ipd.custom_type.v64int8.v64int8 %aw.coerce, metadata !3453, metadata !DIExpression()), !dbg !3454
  call addrspace(1) void @llvm.dbg.value(metadata %struct.v8cint32* %this, metadata !3450, metadata !DIExpression()), !dbg !3454
  call addrspace(1) void @llvm.dbg.value(metadata i32 0, metadata !3452, metadata !DIExpression()), !dbg !3454
  %mw = getelementptr inbounds %struct.v8cint32, %struct.v8cint32* %this, i32 0, i32 0, !dbg !3455
  store %struct.ipd.custom_type.v64int8.v64int8 %aw.coerce, %struct.ipd.custom_type.v64int8.v64int8* %mw, align 32, !dbg !3456, !tbaa !1689
  ret void, !dbg !3457
}

; Function Attrs: alwaysinline nounwind mustprogress
define linkonce_odr dso_local %struct.v8cint32 @_ZN3aie6detail14vector_storageI6cint32Lj8EE5undefEv() addrspace(1) #9 comdat align 2 !dbg !3458 {
entry:
  %retval = alloca %struct.v8cint32, align 32
  %call = call addrspace(1) %struct.v8cint32 @_Z14undef_v8cint32v() #26, !dbg !3459
  %0 = getelementptr inbounds %struct.v8cint32, %struct.v8cint32* %retval, i32 0, i32 0, !dbg !3459
  %1 = extractvalue %struct.v8cint32 %call, 0, !dbg !3459
  store %struct.ipd.custom_type.v64int8.v64int8 %1, %struct.ipd.custom_type.v64int8.v64int8* %0, align 32, !dbg !3459
  %2 = load %struct.v8cint32, %struct.v8cint32* %retval, align 32, !dbg !3460
  ret %struct.v8cint32 %2, !dbg !3460
}

; Function Attrs: alwaysinline nounwind mustprogress
define linkonce_odr dso_local %struct.v8cint32 @_Z14undef_v8cint32v() addrspace(1) #9 comdat {
entry:
  %retval = alloca %struct.v8cint32, align 32
  %call = call x86_regcallcc addrspace(1) %struct.v8cint32 @__regcall3__chessintr_v8cint32_undef_v8cint32() #34
  %0 = getelementptr inbounds %struct.v8cint32, %struct.v8cint32* %retval, i32 0, i32 0
  %1 = extractvalue %struct.v8cint32 %call, 0
  store %struct.ipd.custom_type.v64int8.v64int8 %1, %struct.ipd.custom_type.v64int8.v64int8* %0, align 32
  %2 = load %struct.v8cint32, %struct.v8cint32* %retval, align 32
  ret %struct.v8cint32 %2
}

; Function Attrs: nounwind readnone willreturn
declare dso_local x86_regcallcc %struct.v8cint32 @__regcall3__chessintr_v8cint32_undef_v8cint32() addrspace(1) #13

; Function Attrs: nounwind readnone willreturn
declare dso_local x86_regcallcc %struct.v32uint8 @__regcall3__chessintr_v32uint8_ext_w_v64uint8___sint(%struct.v64uint8, i32 signext) addrspace(1) #13

; Function Attrs: alwaysinline nounwind mustprogress
define linkonce_odr dso_local void @_ZN3aie6detail14vector_storageIhLj128EE5undefEv(%"struct.std::__2::array"* noalias sret(%"struct.std::__2::array") align 32 %agg.result) addrspace(1) #9 comdat align 2 !dbg !3461 {
entry:
  %__elems_ = getelementptr inbounds %"struct.std::__2::array", %"struct.std::__2::array"* %agg.result, i32 0, i32 0, !dbg !3462
  %arrayinit.begin = getelementptr inbounds [2 x %struct.v64uint8], [2 x %struct.v64uint8]* %__elems_, i32 0, i32 0, !dbg !3463
  %call = call addrspace(1) %struct.v64uint8 @_Z14undef_v64uint8v() #26, !dbg !3463
  %0 = getelementptr inbounds %struct.v64uint8, %struct.v64uint8* %arrayinit.begin, i32 0, i32 0, !dbg !3463
  %1 = extractvalue %struct.v64uint8 %call, 0, !dbg !3463
  store %struct.ipd.custom_type.v64int8.v64int8 %1, %struct.ipd.custom_type.v64int8.v64int8* %0, align 32, !dbg !3463
  %arrayinit.element = getelementptr inbounds %struct.v64uint8, %struct.v64uint8* %arrayinit.begin, i32 1, !dbg !3463
  %call1 = call addrspace(1) %struct.v64uint8 @_Z14undef_v64uint8v() #26, !dbg !3464
  %2 = getelementptr inbounds %struct.v64uint8, %struct.v64uint8* %arrayinit.element, i32 0, i32 0, !dbg !3464
  %3 = extractvalue %struct.v64uint8 %call1, 0, !dbg !3464
  store %struct.ipd.custom_type.v64int8.v64int8 %3, %struct.ipd.custom_type.v64int8.v64int8* %2, align 32, !dbg !3464
  ret void, !dbg !3465
}

; Function Attrs: alwaysinline nounwind mustprogress
define linkonce_odr hidden nonnull align 32 dereferenceable(64) %struct.v64uint8* @_ZNKSt3__25arrayI8v64uint8Lj2EEixEj(%"struct.std::__2::array"* nonnull dereferenceable(128) %this, i32 %__n) addrspace(1) #9 comdat align 2 !dbg !3466 {
entry:
  call addrspace(1) void @llvm.dbg.value(metadata %"struct.std::__2::array"* %this, metadata !3468, metadata !DIExpression()), !dbg !3471
  call addrspace(1) void @llvm.dbg.value(metadata i32 %__n, metadata !3470, metadata !DIExpression()), !dbg !3471
  %__elems_ = getelementptr inbounds %"struct.std::__2::array", %"struct.std::__2::array"* %this, i32 0, i32 0, !dbg !3472
  %arrayidx = getelementptr inbounds [2 x %struct.v64uint8], [2 x %struct.v64uint8]* %__elems_, i32 0, i32 %__n, !dbg !3472
  ret %struct.v64uint8* %arrayidx, !dbg !3473
}

; Function Attrs: alwaysinline nounwind
define linkonce_odr dso_local void @_ZN3aie6detail6vectorIhLj64EEC2E8v64uint8(%"class.aie::detail::vector.8"* nonnull dereferenceable(64) %this, %struct.v64uint8 %v.coerce) unnamed_addr addrspace(1) #11 comdat align 2 !dbg !3474 {
entry:
  call addrspace(1) void @llvm.dbg.value(metadata %struct.v64uint8 %v.coerce, metadata !3477, metadata !DIExpression()), !dbg !3478
  call addrspace(1) void @llvm.dbg.value(metadata %"class.aie::detail::vector.8"* %this, metadata !3476, metadata !DIExpression()), !dbg !3478
  %data = getelementptr inbounds %"class.aie::detail::vector.8", %"class.aie::detail::vector.8"* %this, i32 0, i32 0, !dbg !3479
  store %struct.v64uint8 %v.coerce, %struct.v64uint8* %data, align 32, !dbg !3480, !tbaa !1689
  ret void, !dbg !3481
}

; Function Attrs: alwaysinline nounwind mustprogress
define linkonce_odr hidden nonnull align 4 dereferenceable(4) i32* @_ZNKSt3__25arrayIjLj4EEixEj(%"struct.std::__2::array.2"* nonnull dereferenceable(16) %this, i32 %__n) addrspace(1) #9 comdat align 2 !dbg !3482 {
entry:
  call addrspace(1) void @llvm.dbg.value(metadata %"struct.std::__2::array.2"* %this, metadata !3484, metadata !DIExpression()), !dbg !3487
  call addrspace(1) void @llvm.dbg.value(metadata i32 %__n, metadata !3486, metadata !DIExpression()), !dbg !3487
  %__elems_ = getelementptr inbounds %"struct.std::__2::array.2", %"struct.std::__2::array.2"* %this, i32 0, i32 0, !dbg !3488
  %arrayidx = getelementptr inbounds [4 x i32], [4 x i32]* %__elems_, i32 0, i32 %__n, !dbg !3488
  ret i32* %arrayidx, !dbg !3489
}

; Function Attrs: alwaysinline nounwind mustprogress
define linkonce_odr hidden nonnull align 4 dereferenceable(4) i32* @_ZNSt3__25arrayIjLj4EEixEj(%"struct.std::__2::array.2"* nonnull dereferenceable(16) %this, i32 %__n) addrspace(1) #9 comdat align 2 !dbg !3490 {
entry:
  call addrspace(1) void @llvm.dbg.value(metadata %"struct.std::__2::array.2"* %this, metadata !3492, metadata !DIExpression()), !dbg !3495
  call addrspace(1) void @llvm.dbg.value(metadata i32 %__n, metadata !3494, metadata !DIExpression()), !dbg !3495
  %__elems_ = getelementptr inbounds %"struct.std::__2::array.2", %"struct.std::__2::array.2"* %this, i32 0, i32 0, !dbg !3496
  %arrayidx = getelementptr inbounds [4 x i32], [4 x i32]* %__elems_, i32 0, i32 %__n, !dbg !3496
  ret i32* %arrayidx, !dbg !3497
}

; Function Attrs: alwaysinline nounwind mustprogress
define linkonce_odr dso_local i32 @_ZN3aie6detail4maskILj128EE10count_wordEj(i32 %n) addrspace(1) #9 comdat align 2 !dbg !3498 {
entry:
  call addrspace(1) void @llvm.dbg.value(metadata i32 %n, metadata !3500, metadata !DIExpression()), !dbg !3502
  call addrspace(1) void @llvm.dbg.value(metadata i32 undef, metadata !3501, metadata !DIExpression()), !dbg !3502
  %shr = lshr i32 %n, 1, !dbg !3503
  %and = and i32 %shr, 1431655765, !dbg !3504
  %sub = sub i32 %n, %and, !dbg !3505
  call addrspace(1) void @llvm.dbg.value(metadata i32 %sub, metadata !3500, metadata !DIExpression()), !dbg !3502
  %and1 = and i32 %sub, 858993459, !dbg !3506
  %shr2 = lshr i32 %sub, 2, !dbg !3507
  %and3 = and i32 %shr2, 858993459, !dbg !3508
  %add = add i32 %and1, %and3, !dbg !3509
  call addrspace(1) void @llvm.dbg.value(metadata i32 %add, metadata !3500, metadata !DIExpression()), !dbg !3502
  %shr4 = lshr i32 %add, 4, !dbg !3510
  %add5 = add i32 %add, %shr4, !dbg !3511
  %and6 = and i32 %add5, 252645135, !dbg !3512
  %mul = mul i32 %and6, 16843009, !dbg !3513
  %shr7 = lshr i32 %mul, 24, !dbg !3514
  call addrspace(1) void @llvm.dbg.value(metadata i32 %shr7, metadata !3501, metadata !DIExpression()), !dbg !3502
  ret i32 %shr7, !dbg !3515
}

; Function Attrs: alwaysinline nounwind readonly willreturn mustprogress
define linkonce_odr dso_local zeroext i1 @_ZN3aie6detail5utils14is_same_objectINS0_6vectorIhLj128EEES4_EEbRKT_RKT0_(%"class.aie::detail::vector.1"* nonnull align 32 dereferenceable(128) %a, %"class.aie::detail::vector.1"* nonnull align 32 dereferenceable(128) %b) addrspace(1) #21 comdat !dbg !3516 {
entry:
  call addrspace(1) void @llvm.dbg.value(metadata %"class.aie::detail::vector.1"* %a, metadata !3520, metadata !DIExpression()), !dbg !3525
  call addrspace(1) void @llvm.dbg.value(metadata %"class.aie::detail::vector.1"* %b, metadata !3521, metadata !DIExpression()), !dbg !3525
  %cmp = icmp eq %"class.aie::detail::vector.1"* %a, %b, !dbg !3526
  ret i1 %cmp, !dbg !3528
}

; Function Attrs: alwaysinline nounwind mustprogress
define linkonce_odr dso_local %"class.aie::detail::mask" @_ZN3aie3neqINS_6detail6vectorIhLj128EEES3_EENS1_4maskIXclsrT_4sizeEEEERKS5_RKT0_(%"class.aie::detail::vector.1"* nonnull align 32 dereferenceable(128) %v1, %"class.aie::detail::vector.1"* nonnull align 32 dereferenceable(128) %v2) addrspace(1) #9 comdat !dbg !3529 {
entry:
  %retval = alloca %"class.aie::detail::mask", align 4
  call addrspace(1) void @llvm.dbg.value(metadata %"class.aie::detail::vector.1"* %v1, metadata !3531, metadata !DIExpression()), !dbg !3534
  call addrspace(1) void @llvm.dbg.value(metadata %"class.aie::detail::vector.1"* %v2, metadata !3532, metadata !DIExpression()), !dbg !3534
  call addrspace(1) void @llvm.dbg.value(metadata i32 undef, metadata !3533, metadata !DIExpression()), !dbg !3534
  call addrspace(1) void @llvm.dbg.value(metadata i32 128, metadata !3533, metadata !DIExpression()), !dbg !3534
  %call = call zeroext addrspace(1) i1 @_ZN3aie6detail5utils14is_same_objectINS0_6vectorIhLj128EEES4_EEbRKT_RKT0_(%"class.aie::detail::vector.1"* nonnull align 32 dereferenceable(128) %v1, %"class.aie::detail::vector.1"* nonnull align 32 dereferenceable(128) %v2) #32, !dbg !3535
  %0 = call addrspace(1) i1 @llvm.chess_manifest(i1 %call), !dbg !3535
  br i1 %0, label %if.then, label %if.end, !dbg !3537

if.then:                                          ; preds = %entry
